0000              1   ;--------------------------------------------------------
0000              2   ; File Created by C51
0000              3   ; Version 1.0.0 #1034 (Dec 12 2012) (MSVC)
0000              4   ; This file was generated Tue Apr 01 22:41:49 2014
0000              5   ;--------------------------------------------------------
                  5   $name Car_Project_2
                  6   $optc51 --model-small
0000              8            R_DSEG    segment data
0000              9            R_CSEG    segment code
0000             10            R_BSEG    segment bit
0000             11            R_XSEG    segment xdata
0000             12            R_PSEG    segment xdata
0000             13            R_ISEG    segment idata
0000             14            R_OSEG    segment data overlay
0000             15            BIT_BANK  segment data overlay
0000             16            R_HOME    segment code
0000             17            R_GSINIT  segment code
0000             18            R_IXSEG   segment xdata
0000             19            R_CONST   segment code
0000             20            R_XINIT   segment code
0000             21            R_DINIT   segment code
0000             22   
0000             23   ;--------------------------------------------------------
0000             24   ; Public variables in this module
0000             25   ;--------------------------------------------------------
0000             26            public _main
0000             27            public _Fake_run
0000             28            public _Move_Car_Further
0000             29            public _Move_Car_Closer
0000             30            public _Parallel_Park_Wait_6
0000             31            public _Parallel_Park_Wait_5
0000             32            public _Parallel_Park_Wait_4
0000             33            public _Parallel_Park_Wait_3
0000             34            public _Parallel_Park_Wait_2
0000             35            public _Parallel_Park_Wait_1
0000             36            public _pwmcounter
0000             37            public __c51_external_startup
0000             38            public _reverse
0000             39            public _dist_index
0000             40            public _dist_table
0000             41            public _right_motor_pwm2
0000             42            public _right_motor_pwm1
0000             43            public _right_motor_pwmcount2
0000             44            public _right_motor_pwmcount1
0000             45            public _left_motor_pwm2
0000             46            public _left_motor_pwm1
0000             47            public _left_motor_pwmcount2
0000             48            public _left_motor_pwmcount1
0000             49            public _Move_Right_Motor_Backwards
0000             50            public _Move_Right_Motor_Forwards
0000             51            public _Move_Left_Motor_Backwards
0000             52            public _Move_Left_Motor_Forwards
0000             53            public _Stop_Right_Motor
0000             54            public _Stop_Left_Motor
0000             55            public _wait50ms
0000             56            public _wait1s
0000             57            public _Get_Right_Distance
0000             58            public _Get_Left_Distance
0000             59            public _Stop_Car
0000             60            public _Face_Transmitter
0000             61            public _Wait_X_Time
0000             62            public _Wait_1ms
0000             63            public _Move_Forwards
0000             64            public _Parallel_Park
0000             65            public _Undo_Parallel_Park
0000             66            public _Turn_Car_Left
0000             67            public _Turn_Car_Right
0000             68            public _Move_Backwards
0000             69            public _Rotate_Car_180_CW
0000             70            public _Rotate_Car_180_CCW
0000             71            public _rx_byte
0000             72            public _wait_bit_time
0000             73            public _wait_one_and_half_bit_time
0000             74            public _SPIWrite
0000             75            public _GetADC
0000             76            public _Testing_Code
0000             77            public _run
0000             78   ;--------------------------------------------------------
0000             79   ; Special Function Registers
0000             80   ;--------------------------------------------------------
0000             81   _ACC            DATA 0xe0
0000             82   _B              DATA 0xf0
0000             83   _PSW            DATA 0xd0
0000             84   _SP             DATA 0x81
0000             85   _SPX            DATA 0xef
0000             86   _DPL            DATA 0x82
0000             87   _DPH            DATA 0x83
0000             88   _DPLB           DATA 0xd4
0000             89   _DPHB           DATA 0xd5
0000             90   _PAGE           DATA 0xf6
0000             91   _AX             DATA 0xe1
0000             92   _BX             DATA 0xf7
0000             93   _DSPR           DATA 0xe2
0000             94   _FIRD           DATA 0xe3
0000             95   _MACL           DATA 0xe4
0000             96   _MACH           DATA 0xe5
0000             97   _PCON           DATA 0x87
0000             98   _AUXR           DATA 0x8e
0000             99   _AUXR1          DATA 0xa2
0000            100   _DPCF           DATA 0xa1
0000            101   _CKRL           DATA 0x97
0000            102   _CKCKON0        DATA 0x8f
0000            103   _CKCKON1        DATA 0xaf
0000            104   _CKSEL          DATA 0x85
0000            105   _CLKREG         DATA 0xae
0000            106   _OSCCON         DATA 0x85
0000            107   _IE             DATA 0xa8
0000            108   _IEN0           DATA 0xa8
0000            109   _IEN1           DATA 0xb1
0000            110   _IPH0           DATA 0xb7
0000            111   _IP             DATA 0xb8
0000            112   _IPL0           DATA 0xb8
0000            113   _IPH1           DATA 0xb3
0000            114   _IPL1           DATA 0xb2
0000            115   _P0             DATA 0x80
0000            116   _P1             DATA 0x90
0000            117   _P2             DATA 0xa0
0000            118   _P3             DATA 0xb0
0000            119   _P4             DATA 0xc0
0000            120   _P0M0           DATA 0xe6
0000            121   _P0M1           DATA 0xe7
0000            122   _P1M0           DATA 0xd6
0000            123   _P1M1           DATA 0xd7
0000            124   _P2M0           DATA 0xce
0000            125   _P2M1           DATA 0xcf
0000            126   _P3M0           DATA 0xc6
0000            127   _P3M1           DATA 0xc7
0000            128   _P4M0           DATA 0xbe
0000            129   _P4M1           DATA 0xbf
0000            130   _SCON           DATA 0x98
0000            131   _SBUF           DATA 0x99
0000            132   _SADEN          DATA 0xb9
0000            133   _SADDR          DATA 0xa9
0000            134   _BDRCON         DATA 0x9b
0000            135   _BRL            DATA 0x9a
0000            136   _TCON           DATA 0x88
0000            137   _TMOD           DATA 0x89
0000            138   _TCONB          DATA 0x91
0000            139   _TL0            DATA 0x8a
0000            140   _TH0            DATA 0x8c
0000            141   _TL1            DATA 0x8b
0000            142   _TH1            DATA 0x8d
0000            143   _RL0            DATA 0xf2
0000            144   _RH0            DATA 0xf4
0000            145   _RL1            DATA 0xf3
0000            146   _RH1            DATA 0xf5
0000            147   _WDTRST         DATA 0xa6
0000            148   _WDTPRG         DATA 0xa7
0000            149   _T2CON          DATA 0xc8
0000            150   _T2MOD          DATA 0xc9
0000            151   _RCAP2H         DATA 0xcb
0000            152   _RCAP2L         DATA 0xca
0000            153   _TH2            DATA 0xcd
0000            154   _TL2            DATA 0xcc
0000            155   _SPCON          DATA 0xc3
0000            156   _SPSTA          DATA 0xc4
0000            157   _SPDAT          DATA 0xc5
0000            158   _SSCON          DATA 0x93
0000            159   _SSCS           DATA 0x94
0000            160   _SSDAT          DATA 0x95
0000            161   _SSADR          DATA 0x96
0000            162   _KBLS           DATA 0x9c
0000            163   _KBE            DATA 0x9d
0000            164   _KBF            DATA 0x9e
0000            165   _KBMOD          DATA 0x9f
0000            166   _BMSEL          DATA 0x92
0000            167   _FCON           DATA 0xd2
0000            168   _EECON          DATA 0xd2
0000            169   _ACSRA          DATA 0xa3
0000            170   _ACSRB          DATA 0xab
0000            171   _AREF           DATA 0xbd
0000            172   _DADC           DATA 0xa4
0000            173   _DADI           DATA 0xa5
0000            174   _DADL           DATA 0xac
0000            175   _DADH           DATA 0xad
0000            176   _CCON           DATA 0xd8
0000            177   _CMOD           DATA 0xd9
0000            178   _CL             DATA 0xe9
0000            179   _CH             DATA 0xf9
0000            180   _CCAPM0         DATA 0xda
0000            181   _CCAPM1         DATA 0xdb
0000            182   _CCAPM2         DATA 0xdc
0000            183   _CCAPM3         DATA 0xdd
0000            184   _CCAPM4         DATA 0xde
0000            185   _CCAP0H         DATA 0xfa
0000            186   _CCAP1H         DATA 0xfb
0000            187   _CCAP2H         DATA 0xfc
0000            188   _CCAP3H         DATA 0xfd
0000            189   _CCAP4H         DATA 0xfe
0000            190   _CCAP0L         DATA 0xea
0000            191   _CCAP1L         DATA 0xeb
0000            192   _CCAP2L         DATA 0xec
0000            193   _CCAP3L         DATA 0xed
0000            194   _CCAP4L         DATA 0xee
0000            195   ;--------------------------------------------------------
0000            196   ; special function bits
0000            197   ;--------------------------------------------------------
0000            198   _ACC_0          BIT 0xe0
0000            199   _ACC_1          BIT 0xe1
0000            200   _ACC_2          BIT 0xe2
0000            201   _ACC_3          BIT 0xe3
0000            202   _ACC_4          BIT 0xe4
0000            203   _ACC_5          BIT 0xe5
0000            204   _ACC_6          BIT 0xe6
0000            205   _ACC_7          BIT 0xe7
0000            206   _B_0            BIT 0xf0
0000            207   _B_1            BIT 0xf1
0000            208   _B_2            BIT 0xf2
0000            209   _B_3            BIT 0xf3
0000            210   _B_4            BIT 0xf4
0000            211   _B_5            BIT 0xf5
0000            212   _B_6            BIT 0xf6
0000            213   _B_7            BIT 0xf7
0000            214   _P              BIT 0xd0
0000            215   _F1             BIT 0xd1
0000            216   _OV             BIT 0xd2
0000            217   _RS0            BIT 0xd3
0000            218   _RS1            BIT 0xd4
0000            219   _F0             BIT 0xd5
0000            220   _AC             BIT 0xd6
0000            221   _CY             BIT 0xd7
0000            222   _EX0            BIT 0xa8
0000            223   _ET0            BIT 0xa9
0000            224   _EX1            BIT 0xaa
0000            225   _ET1            BIT 0xab
0000            226   _ES             BIT 0xac
0000            227   _ET2            BIT 0xad
0000            228   _EC             BIT 0xae
0000            229   _EA             BIT 0xaf
0000            230   _PX0            BIT 0xb8
0000            231   _PT0            BIT 0xb9
0000            232   _PX1            BIT 0xba
0000            233   _PT1            BIT 0xbb
0000            234   _PS             BIT 0xbc
0000            235   _PT2            BIT 0xbd
0000            236   _IP0D           BIT 0xbf
0000            237   _PPCL           BIT 0xbe
0000            238   _PT2L           BIT 0xbd
0000            239   _PLS            BIT 0xbc
0000            240   _PT1L           BIT 0xbb
0000            241   _PX1L           BIT 0xba
0000            242   _PT0L           BIT 0xb9
0000            243   _PX0L           BIT 0xb8
0000            244   _P0_0           BIT 0x80
0000            245   _P0_1           BIT 0x81
0000            246   _P0_2           BIT 0x82
0000            247   _P0_3           BIT 0x83
0000            248   _P0_4           BIT 0x84
0000            249   _P0_5           BIT 0x85
0000            250   _P0_6           BIT 0x86
0000            251   _P0_7           BIT 0x87
0000            252   _P1_0           BIT 0x90
0000            253   _P1_1           BIT 0x91
0000            254   _P1_2           BIT 0x92
0000            255   _P1_3           BIT 0x93
0000            256   _P1_4           BIT 0x94
0000            257   _P1_5           BIT 0x95
0000            258   _P1_6           BIT 0x96
0000            259   _P1_7           BIT 0x97
0000            260   _P2_0           BIT 0xa0
0000            261   _P2_1           BIT 0xa1
0000            262   _P2_2           BIT 0xa2
0000            263   _P2_3           BIT 0xa3
0000            264   _P2_4           BIT 0xa4
0000            265   _P2_5           BIT 0xa5
0000            266   _P2_6           BIT 0xa6
0000            267   _P2_7           BIT 0xa7
0000            268   _P3_0           BIT 0xb0
0000            269   _P3_1           BIT 0xb1
0000            270   _P3_2           BIT 0xb2
0000            271   _P3_3           BIT 0xb3
0000            272   _P3_4           BIT 0xb4
0000            273   _P3_5           BIT 0xb5
0000            274   _P3_6           BIT 0xb6
0000            275   _P3_7           BIT 0xb7
0000            276   _RXD            BIT 0xb0
0000            277   _TXD            BIT 0xb1
0000            278   _INT0           BIT 0xb2
0000            279   _INT1           BIT 0xb3
0000            280   _T0             BIT 0xb4
0000            281   _T1             BIT 0xb5
0000            282   _WR             BIT 0xb6
0000            283   _RD             BIT 0xb7
0000            284   _P4_0           BIT 0xc0
0000            285   _P4_1           BIT 0xc1
0000            286   _P4_2           BIT 0xc2
0000            287   _P4_3           BIT 0xc3
0000            288   _P4_4           BIT 0xc4
0000            289   _P4_5           BIT 0xc5
0000            290   _P4_6           BIT 0xc6
0000            291   _P4_7           BIT 0xc7
0000            292   _RI             BIT 0x98
0000            293   _TI             BIT 0x99
0000            294   _RB8            BIT 0x9a
0000            295   _TB8            BIT 0x9b
0000            296   _REN            BIT 0x9c
0000            297   _SM2            BIT 0x9d
0000            298   _SM1            BIT 0x9e
0000            299   _SM0            BIT 0x9f
0000            300   _IT0            BIT 0x88
0000            301   _IE0            BIT 0x89
0000            302   _IT1            BIT 0x8a
0000            303   _IE1            BIT 0x8b
0000            304   _TR0            BIT 0x8c
0000            305   _TF0            BIT 0x8d
0000            306   _TR1            BIT 0x8e
0000            307   _TF1            BIT 0x8f
0000            308   _CP_RL2         BIT 0xc8
0000            309   _C_T2           BIT 0xc9
0000            310   _TR2            BIT 0xca
0000            311   _EXEN2          BIT 0xcb
0000            312   _TCLK           BIT 0xcc
0000            313   _RCLK           BIT 0xcd
0000            314   _EXF2           BIT 0xce
0000            315   _TF2            BIT 0xcf
0000            316   _CF             BIT 0xdf
0000            317   _CR             BIT 0xde
0000            318   _CCF4           BIT 0xdc
0000            319   _CCF3           BIT 0xdb
0000            320   _CCF2           BIT 0xda
0000            321   _CCF1           BIT 0xd9
0000            322   _CCF0           BIT 0xd8
0000            323   ;--------------------------------------------------------
0000            324   ; overlayable register banks
0000            325   ;--------------------------------------------------------
0000            326            rbank0 segment data overlay
0000            327   ;--------------------------------------------------------
0000            328   ; internal ram data
0000            329   ;--------------------------------------------------------
0000            330            rseg R_DSEG
0000            331   _left_motor_pwmcount1:
0000            332            ds 1
0001            333   _left_motor_pwmcount2:
0001            334            ds 1
0002            335   _left_motor_pwm1:
0002            336            ds 1
0003            337   _left_motor_pwm2:
0003            338            ds 1
0004            339   _right_motor_pwmcount1:
0004            340            ds 1
0005            341   _right_motor_pwmcount2:
0005            342            ds 1
0006            343   _right_motor_pwm1:
0006            344            ds 1
0007            345   _right_motor_pwm2:
0007            346            ds 1
0008            347   _dist_table:
0008            348            ds 8
0010            349   _dist_index:
0010            350            ds 2
0012            351   _reverse:
0012            352            ds 1
0013            353   ;--------------------------------------------------------
0013            354   ; overlayable items in internal ram 
0013            355   ;--------------------------------------------------------
0000            356            rseg    R_OSEG
0000            357   ;--------------------------------------------------------
0000            358   ; indirectly addressable internal ram data
0000            359   ;--------------------------------------------------------
0000            360            rseg R_ISEG
0000            361   ;--------------------------------------------------------
0000            362   ; absolute internal ram data
0000            363   ;--------------------------------------------------------
0000            364            DSEG
0000            365   ;--------------------------------------------------------
0000            366   ; bit data
0000            367   ;--------------------------------------------------------
0000            368            rseg R_BSEG
0000            369   ;--------------------------------------------------------
0000            370   ; paged external ram data
0000            371   ;--------------------------------------------------------
0000            372            rseg R_PSEG
0000            373   ;--------------------------------------------------------
0000            374   ; external ram data
0000            375   ;--------------------------------------------------------
0000            376            rseg R_XSEG
0000            377   ;--------------------------------------------------------
0000            378   ; absolute external ram data
0000            379   ;--------------------------------------------------------
0000            380            XSEG
0000            381   ;--------------------------------------------------------
0000            382   ; external initialized ram data
0000            383   ;--------------------------------------------------------
0000            384            rseg R_IXSEG
0000            385            rseg R_HOME
0000            386            rseg R_GSINIT
0000            387            rseg R_CSEG
0000            388   ;--------------------------------------------------------
0000            389   ; Reset entry point and interrupt vectors
0000            390   ;--------------------------------------------------------
0000            391            CSEG at 0x0000
0000 020100     392            ljmp    _crt0
000B            393            CSEG at 0x000b
000B 020100     394            ljmp    _pwmcounter
000E            395   ;--------------------------------------------------------
000E            396   ; global & static initialisations
000E            397   ;--------------------------------------------------------
0000            398            rseg R_HOME
0000            399            rseg R_GSINIT
0000            400            rseg R_GSINIT
0000            401   ;--------------------------------------------------------
0000            402   ; data variables initialization
0000            403   ;--------------------------------------------------------
0000            404            rseg R_DINIT
0000            405   ;        C:\Users\Travis\Documents\GitHub\eeceProject2\eeceProject2\Car_Project_2.c:34: unsigned int dist_table[4] = {150, 75, 30, 20};
0000 754096     406            mov     _dist_table,#0x96
0003 754100     407            mov     (_dist_table + 1),#0x00
0006 75424B     408            mov     (_dist_table + 0x0002),#0x4B
0009 754300     409            mov     ((_dist_table + 0x0002) + 1),#0x00
000C 75441E     410            mov     (_dist_table + 0x0004),#0x1E
000F 754500     411            mov     ((_dist_table + 0x0004) + 1),#0x00
0012 754614     412            mov     (_dist_table + 0x0006),#0x14
0015 754700     413            mov     ((_dist_table + 0x0006) + 1),#0x00
0018            414            ; The linker places a 'ret' at the end of segment R_DINIT.
0018            415   ;--------------------------------------------------------
0018            416   ; code
0018            417   ;--------------------------------------------------------
0000            418            rseg R_CSEG
0000            419   ;------------------------------------------------------------
0000            420   ;Allocation info for local variables in function '_c51_external_startup'
0000            421   ;------------------------------------------------------------
0000            422   ;------------------------------------------------------------
0000            423   ;        C:\Users\Travis\Documents\GitHub\eeceProject2\eeceProject2\Car_Project_2.c:76: unsigned char _c51_external_startup(void)
0000            424   ;        -----------------------------------------
0000            425   ;         function _c51_external_startup
0000            426   ;        -----------------------------------------
0000            427   __c51_external_startup:
0000            428            using   0
0000            429   ;        C:\Users\Travis\Documents\GitHub\eeceProject2\eeceProject2\Car_Project_2.c:79: P0M0=0;  P0M1=0;
0000 75E600     430            mov     _P0M0,#0x00
0003 75E700     431            mov     _P0M1,#0x00
0006            432   ;        C:\Users\Travis\Documents\GitHub\eeceProject2\eeceProject2\Car_Project_2.c:80: P1M0=0;  P1M1=0;
0006 75D600     433            mov     _P1M0,#0x00
0009 75D700     434            mov     _P1M1,#0x00
000C            435   ;        C:\Users\Travis\Documents\GitHub\eeceProject2\eeceProject2\Car_Project_2.c:81: P2M0=0;  P2M1=0;
000C 75CE00     436            mov     _P2M0,#0x00
000F 75CF00     437            mov     _P2M1,#0x00
0012            438   ;        C:\Users\Travis\Documents\GitHub\eeceProject2\eeceProject2\Car_Project_2.c:82: P3M0=0;  P3M1=0;
0012 75C600     439            mov     _P3M0,#0x00
0015 75C700     440            mov     _P3M1,#0x00
0018            441   ;        C:\Users\Travis\Documents\GitHub\eeceProject2\eeceProject2\Car_Project_2.c:83: AUXR=0B_0001_0001; // 1152 bytes of internal XDATA, P4.4 is a general purpose I/O
0018 758E11     442            mov     _AUXR,#0x11
001B            443   ;        C:\Users\Travis\Documents\GitHub\eeceProject2\eeceProject2\Car_Project_2.c:84: P4M0=0;  P4M1=0;
001B 75BE00     444            mov     _P4M0,#0x00
001E 75BF00     445            mov     _P4M1,#0x00
0021            446   ;        C:\Users\Travis\Documents\GitHub\eeceProject2\eeceProject2\Car_Project_2.c:87: PCON|=0x80;
0021 438780     447            orl     _PCON,#0x80
0024            448   ;        C:\Users\Travis\Documents\GitHub\eeceProject2\eeceProject2\Car_Project_2.c:88: SCON = 0x52;
0024 759852     449            mov     _SCON,#0x52
0027            450   ;        C:\Users\Travis\Documents\GitHub\eeceProject2\eeceProject2\Car_Project_2.c:89: BDRCON=0;
0027 759B00     451            mov     _BDRCON,#0x00
002A            452   ;        C:\Users\Travis\Documents\GitHub\eeceProject2\eeceProject2\Car_Project_2.c:90: BRL=BRG_VAL;
002A 759AFA     453            mov     _BRL,#0xFA
002D            454   ;        C:\Users\Travis\Documents\GitHub\eeceProject2\eeceProject2\Car_Project_2.c:91: BDRCON=BRR|TBCK|RBCK|SPD;
002D 759B1E     455            mov     _BDRCON,#0x1E
0030            456   ;        C:\Users\Travis\Documents\GitHub\eeceProject2\eeceProject2\Car_Project_2.c:94: TR0=0; // Stop timer 0
0030 C28C       457            clr     _TR0
0032            458   ;        C:\Users\Travis\Documents\GitHub\eeceProject2\eeceProject2\Car_Project_2.c:95: TMOD=0x01; // 16-bit timer
0032 758901     459            mov     _TMOD,#0x01
0035            460   ;        C:\Users\Travis\Documents\GitHub\eeceProject2\eeceProject2\Car_Project_2.c:100: TH0=RH0=TIMER0_RELOAD_VALUE/0x100;
0035 75F4FF     461            mov     _RH0,#0xFF
0038 758CFF     462            mov     _TH0,#0xFF
003B            463   ;        C:\Users\Travis\Documents\GitHub\eeceProject2\eeceProject2\Car_Project_2.c:101: TL0=RL0=TIMER0_RELOAD_VALUE%0x100;
003B 75F248     464            mov     _RL0,#0x48
003E 758A48     465            mov     _TL0,#0x48
0041            466   ;        C:\Users\Travis\Documents\GitHub\eeceProject2\eeceProject2\Car_Project_2.c:102: TR0=1; // Start timer 0 (bit 4 in TCON)
0041 D28C       467            setb    _TR0
0043            468   ;        C:\Users\Travis\Documents\GitHub\eeceProject2\eeceProject2\Car_Project_2.c:103: ET0=1; // Enable timer 0 interrupt
0043 D2A9       469            setb    _ET0
0045            470   ;        C:\Users\Travis\Documents\GitHub\eeceProject2\eeceProject2\Car_Project_2.c:104: EA=1;  // Enable global interrupts
0045 D2AF       471            setb    _EA
0047            472   ;        C:\Users\Travis\Documents\GitHub\eeceProject2\eeceProject2\Car_Project_2.c:106: left_motor_pwmcount1 = 0;    
0047 75C000     473            mov     _left_motor_pwmcount1,#0x00
004A            474   ;        C:\Users\Travis\Documents\GitHub\eeceProject2\eeceProject2\Car_Project_2.c:107: left_motor_pwmcount2 = 0;
004A 757000     475            mov     _left_motor_pwmcount2,#0x00
004D            476   ;        C:\Users\Travis\Documents\GitHub\eeceProject2\eeceProject2\Car_Project_2.c:108: right_motor_pwmcount1 = 0;
004D 758000     477            mov     _right_motor_pwmcount1,#0x00
0050            478   ;        C:\Users\Travis\Documents\GitHub\eeceProject2\eeceProject2\Car_Project_2.c:109: right_motor_pwmcount2 = 0;
0050 753000     479            mov     _right_motor_pwmcount2,#0x00
0053            480   ;        C:\Users\Travis\Documents\GitHub\eeceProject2\eeceProject2\Car_Project_2.c:111: return 0;
0053 758200     481            mov     dpl,#0x00
0056 22         482            ret
0057            483   ;------------------------------------------------------------
0057            484   ;Allocation info for local variables in function 'pwmcounter'
0057            485   ;------------------------------------------------------------
0057            486   ;------------------------------------------------------------
0057            487   ;        C:\Users\Travis\Documents\GitHub\eeceProject2\eeceProject2\Car_Project_2.c:116: void pwmcounter (void) interrupt 1
0057            488   ;        -----------------------------------------
0057            489   ;         function pwmcounter
0057            490   ;        -----------------------------------------
0057            491   _pwmcounter:
0057 C0E0       492            push    acc
0059 C0D0       493            push    psw
005B 75D000     494            mov     psw,#0x00
005E            495   ;        C:\Users\Travis\Documents\GitHub\eeceProject2\eeceProject2\Car_Project_2.c:118: if(++left_motor_pwmcount1>99) left_motor_pwmcount1=0;
005E 05C0       496            inc     _left_motor_pwmcount1
0060 E5C0       497            mov     a,_left_motor_pwmcount1
0062 249C       498            add     a,#0xff - 0x63
0064 5001       499            jnc     L003002?
0066 75C000     500            mov     _left_motor_pwmcount1,#0x00
0069            501   L003002?:
0069            502   ;        C:\Users\Travis\Documents\GitHub\eeceProject2\eeceProject2\Car_Project_2.c:119: P1_2=(left_motor_pwm1>left_motor_pwmcount1)?1:0;
0069 C3         503            clr     c
006A E5C0       504            mov     a,_left_motor_pwmcount1
006C 9520       505            subb    a,_left_motor_pwm1
006E 9292       506            mov     _P1_2,c
0070            507   ;        C:\Users\Travis\Documents\GitHub\eeceProject2\eeceProject2\Car_Project_2.c:121: if(++left_motor_pwmcount2>99) left_motor_pwmcount2=0;
0070 0570       508            inc     _left_motor_pwmcount2
0072 E570       509            mov     a,_left_motor_pwmcount2
0074 249C       510            add     a,#0xff - 0x63
0076 5001       511            jnc     L003004?
0078 757000     512            mov     _left_motor_pwmcount2,#0x00
007B            513   L003004?:
007B            514   ;        C:\Users\Travis\Documents\GitHub\eeceProject2\eeceProject2\Car_Project_2.c:122: P1_4=(left_motor_pwm2>left_motor_pwmcount2)?1:0;
007B C3         515            clr     c
007C E570       516            mov     a,_left_motor_pwmcount2
007E 95D0       517            subb    a,_left_motor_pwm2
0080 9294       518            mov     _P1_4,c
0082            519   ;        C:\Users\Travis\Documents\GitHub\eeceProject2\eeceProject2\Car_Project_2.c:124: if(++right_motor_pwmcount1>99) right_motor_pwmcount1=0;
0082 0580       520            inc     _right_motor_pwmcount1
0084 E580       521            mov     a,_right_motor_pwmcount1
0086 249C       522            add     a,#0xff - 0x63
0088 5001       523            jnc     L003006?
008A 758000     524            mov     _right_motor_pwmcount1,#0x00
008D            525   L003006?:
008D            526   ;        C:\Users\Travis\Documents\GitHub\eeceProject2\eeceProject2\Car_Project_2.c:125: P1_0=(right_motor_pwm1>right_motor_pwmcount1)?1:0;
008D C3         527            clr     c
008E E580       528            mov     a,_right_motor_pwmcount1
0090 95E0       529            subb    a,_right_motor_pwm1
0092 9290       530            mov     _P1_0,c
0094            531   ;        C:\Users\Travis\Documents\GitHub\eeceProject2\eeceProject2\Car_Project_2.c:127: if(++right_motor_pwmcount2>99) right_motor_pwmcount2=0;
0094 0530       532            inc     _right_motor_pwmcount2
0096 E530       533            mov     a,_right_motor_pwmcount2
0098 249C       534            add     a,#0xff - 0x63
009A 5001       535            jnc     L003008?
009C 753000     536            mov     _right_motor_pwmcount2,#0x00
009F            537   L003008?:
009F            538   ;        C:\Users\Travis\Documents\GitHub\eeceProject2\eeceProject2\Car_Project_2.c:128: P1_1=(right_motor_pwm2>right_motor_pwmcount2)?1:0;
009F C3         539            clr     c
00A0 E530       540            mov     a,_right_motor_pwmcount2
00A2 9590       541            subb    a,_right_motor_pwm2
00A4 9291       542            mov     _P1_1,c
00A6 D0D0       543            pop     psw
00A8 D0E0       544            pop     acc
00AA 32         545            reti
00AB            546   ;        eliminated unneeded push/pop dpl
00AB            547   ;        eliminated unneeded push/pop dph
00AB            548   ;        eliminated unneeded push/pop b
00AB            549   ;------------------------------------------------------------
00AB            550   ;Allocation info for local variables in function 'Move_Right_Motor_Backwards'
00AB            551   ;------------------------------------------------------------
00AB            552   ;------------------------------------------------------------
00AB            553   ;        C:\Users\Travis\Documents\GitHub\eeceProject2\eeceProject2\Car_Project_2.c:133: void Move_Right_Motor_Backwards(){
00AB            554   ;        -----------------------------------------
00AB            555   ;         function Move_Right_Motor_Backwards
00AB            556   ;        -----------------------------------------
00AB            557   _Move_Right_Motor_Backwards:
00AB            558   ;        C:\Users\Travis\Documents\GitHub\eeceProject2\eeceProject2\Car_Project_2.c:134: right_motor_pwm1 = 51;
00AB 75E033     559            mov     _right_motor_pwm1,#0x33
00AE            560   ;        C:\Users\Travis\Documents\GitHub\eeceProject2\eeceProject2\Car_Project_2.c:135: right_motor_pwm2 = 0;
00AE 759000     561            mov     _right_motor_pwm2,#0x00
00B1 22         562            ret
00B2            563   ;------------------------------------------------------------
00B2            564   ;Allocation info for local variables in function 'Move_Right_Motor_Forwards'
00B2            565   ;------------------------------------------------------------
00B2            566   ;------------------------------------------------------------
00B2            567   ;        C:\Users\Travis\Documents\GitHub\eeceProject2\eeceProject2\Car_Project_2.c:141: void Move_Right_Motor_Forwards (void){
00B2            568   ;        -----------------------------------------
00B2            569   ;         function Move_Right_Motor_Forwards
00B2            570   ;        -----------------------------------------
00B2            571   _Move_Right_Motor_Forwards:
00B2            572   ;        C:\Users\Travis\Documents\GitHub\eeceProject2\eeceProject2\Car_Project_2.c:142: right_motor_pwm1 = 0;
00B2 75E000     573            mov     _right_motor_pwm1,#0x00
00B5            574   ;        C:\Users\Travis\Documents\GitHub\eeceProject2\eeceProject2\Car_Project_2.c:143: right_motor_pwm2 = 51;
00B5 759033     575            mov     _right_motor_pwm2,#0x33
00B8 22         576            ret
00B9            577   ;------------------------------------------------------------
00B9            578   ;Allocation info for local variables in function 'Move_Left_Motor_Backwards'
00B9            579   ;------------------------------------------------------------
00B9            580   ;------------------------------------------------------------
00B9            581   ;        C:\Users\Travis\Documents\GitHub\eeceProject2\eeceProject2\Car_Project_2.c:149: void Move_Left_Motor_Backwards (void){
00B9            582   ;        -----------------------------------------
00B9            583   ;         function Move_Left_Motor_Backwards
00B9            584   ;        -----------------------------------------
00B9            585   _Move_Left_Motor_Backwards:
00B9            586   ;        C:\Users\Travis\Documents\GitHub\eeceProject2\eeceProject2\Car_Project_2.c:150: left_motor_pwm1 = 47;
00B9 75202F     587            mov     _left_motor_pwm1,#0x2F
00BC            588   ;        C:\Users\Travis\Documents\GitHub\eeceProject2\eeceProject2\Car_Project_2.c:151: left_motor_pwm2 = 0;
00BC 75D000     589            mov     _left_motor_pwm2,#0x00
00BF 22         590            ret
00C0            591   ;------------------------------------------------------------
00C0            592   ;Allocation info for local variables in function 'Move_Left_Motor_Forwards'
00C0            593   ;------------------------------------------------------------
00C0            594   ;------------------------------------------------------------
00C0            595   ;        C:\Users\Travis\Documents\GitHub\eeceProject2\eeceProject2\Car_Project_2.c:156: void Move_Left_Motor_Forwards (void){
00C0            596   ;        -----------------------------------------
00C0            597   ;         function Move_Left_Motor_Forwards
00C0            598   ;        -----------------------------------------
00C0            599   _Move_Left_Motor_Forwards:
00C0            600   ;        C:\Users\Travis\Documents\GitHub\eeceProject2\eeceProject2\Car_Project_2.c:157: left_motor_pwm1 = 0;
00C0 752000     601            mov     _left_motor_pwm1,#0x00
00C3            602   ;        C:\Users\Travis\Documents\GitHub\eeceProject2\eeceProject2\Car_Project_2.c:158: left_motor_pwm2 = 47;
00C3 75D02F     603            mov     _left_motor_pwm2,#0x2F
00C6 22         604            ret
00C7            605   ;------------------------------------------------------------
00C7            606   ;Allocation info for local variables in function 'Stop_Right_Motor'
00C7            607   ;------------------------------------------------------------
00C7            608   ;------------------------------------------------------------
00C7            609   ;        C:\Users\Travis\Documents\GitHub\eeceProject2\eeceProject2\Car_Project_2.c:162: void Stop_Right_Motor (void){
00C7            610   ;        -----------------------------------------
00C7            611   ;         function Stop_Right_Motor
00C7            612   ;        -----------------------------------------
00C7            613   _Stop_Right_Motor:
00C7            614   ;        C:\Users\Travis\Documents\GitHub\eeceProject2\eeceProject2\Car_Project_2.c:163: right_motor_pwm1 = 0;
00C7 75E000     615            mov     _right_motor_pwm1,#0x00
00CA            616   ;        C:\Users\Travis\Documents\GitHub\eeceProject2\eeceProject2\Car_Project_2.c:164: right_motor_pwm2 = 0;
00CA 759000     617            mov     _right_motor_pwm2,#0x00
00CD 22         618            ret
00CE            619   ;------------------------------------------------------------
00CE            620   ;Allocation info for local variables in function 'Stop_Left_Motor'
00CE            621   ;------------------------------------------------------------
00CE            622   ;------------------------------------------------------------
00CE            623   ;        C:\Users\Travis\Documents\GitHub\eeceProject2\eeceProject2\Car_Project_2.c:168: void Stop_Left_Motor (void){
00CE            624   ;        -----------------------------------------
00CE            625   ;         function Stop_Left_Motor
00CE            626   ;        -----------------------------------------
00CE            627   _Stop_Left_Motor:
00CE            628   ;        C:\Users\Travis\Documents\GitHub\eeceProject2\eeceProject2\Car_Project_2.c:169: left_motor_pwm1 = 0;
00CE 752000     629            mov     _left_motor_pwm1,#0x00
00D1            630   ;        C:\Users\Travis\Documents\GitHub\eeceProject2\eeceProject2\Car_Project_2.c:170: left_motor_pwm2 = 0;
00D1 75D000     631            mov     _left_motor_pwm2,#0x00
00D4 22         632            ret
00D5            633   ;------------------------------------------------------------
00D5            634   ;Allocation info for local variables in function 'wait50ms'
00D5            635   ;------------------------------------------------------------
00D5            636   ;------------------------------------------------------------
00D5            637   ;        C:\Users\Travis\Documents\GitHub\eeceProject2\eeceProject2\Car_Project_2.c:173: void wait50ms(){
00D5            638   ;        -----------------------------------------
00D5            639   ;         function wait50ms
00D5            640   ;        -----------------------------------------
00D5            641   _wait50ms:
00D5            642   ;        C:\Users\Travis\Documents\GitHub\eeceProject2\eeceProject2\Car_Project_2.c:184: _endasm;
00D5            643            
00D5            644      ;For a 22.1184MHz crystal one machine cycle
00D5            645      ;takes 12/22.1184MHz=0.5425347us
00D5 7A01       646                  mov R2, #1
00D7            647             Lg3:
00D7 79F8       648            mov R1, #248
00D9            649             Lg2:
00D9 78B8       650            mov R0, #184
00DB            651             Lg1:
00DB D8F0       652            djnz R0, Lg1 ; 2 machine cycles-> 2*0.5425347us*184=200us
00DD D9B0       653                  djnz R1, Lg2 ; 200us*250=0.05s
00DF DA70       654                  djnz R2, Lg3 ; 0.05s*20=50ms
00E1 22         655                  ret
00E2            656                
00E2 22         657            ret
00E3            658   ;------------------------------------------------------------
00E3            659   ;Allocation info for local variables in function 'wait1s'
00E3            660   ;------------------------------------------------------------
00E3            661   ;i                         Allocated to registers r2 r3 
00E3            662   ;------------------------------------------------------------
00E3            663   ;        C:\Users\Travis\Documents\GitHub\eeceProject2\eeceProject2\Car_Project_2.c:187: void wait1s(){
00E3            664   ;        -----------------------------------------
00E3            665   ;         function wait1s
00E3            666   ;        -----------------------------------------
00E3            667   _wait1s:
00E3            668   ;        C:\Users\Travis\Documents\GitHub\eeceProject2\eeceProject2\Car_Project_2.c:189: for (i = 0; i < 20; ++i){
00E3 7A14       669            mov     r2,#0x14
00E5 7B00       670            mov     r3,#0x00
00E7            671   L011003?:
00E7            672   ;        C:\Users\Travis\Documents\GitHub\eeceProject2\eeceProject2\Car_Project_2.c:190: wait50ms();
00E7 C002       673            push    ar2
00E9 C003       674            push    ar3
00EB 120100     675            lcall   _wait50ms
00EE D003       676            pop     ar3
00F0 D002       677            pop     ar2
00F2 1A         678            dec     r2
00F3 BAFF70     679            cjne    r2,#0xff,L011009?
00F6 1B         680            dec     r3
00F7            681   L011009?:
00F7            682   ;        C:\Users\Travis\Documents\GitHub\eeceProject2\eeceProject2\Car_Project_2.c:189: for (i = 0; i < 20; ++i){
00F7 EA         683            mov     a,r2
00F8 4B         684            orl     a,r3
00F9 7001       685            jnz     L011003?
00FB 22         686            ret
00FC            687   ;------------------------------------------------------------
00FC            688   ;Allocation info for local variables in function 'Get_Right_Distance'
00FC            689   ;------------------------------------------------------------
00FC            690   ;------------------------------------------------------------
00FC            691   ;        C:\Users\Travis\Documents\GitHub\eeceProject2\eeceProject2\Car_Project_2.c:198: unsigned int Get_Right_Distance(void){
00FC            692   ;        -----------------------------------------
00FC            693   ;         function Get_Right_Distance
00FC            694   ;        -----------------------------------------
00FC            695   _Get_Right_Distance:
00FC            696   ;        C:\Users\Travis\Documents\GitHub\eeceProject2\eeceProject2\Car_Project_2.c:201: return GetADC(2); //for now channel 1 is right motor
00FC 758202     697            mov     dpl,#0x02
00FF 020100     698            ljmp    _GetADC
0102            699   ;------------------------------------------------------------
0102            700   ;Allocation info for local variables in function 'Get_Left_Distance'
0102            701   ;------------------------------------------------------------
0102            702   ;------------------------------------------------------------
0102            703   ;        C:\Users\Travis\Documents\GitHub\eeceProject2\eeceProject2\Car_Project_2.c:206: unsigned int Get_Left_Distance(void){
0102            704   ;        -----------------------------------------
0102            705   ;         function Get_Left_Distance
0102            706   ;        -----------------------------------------
0102            707   _Get_Left_Distance:
0102            708   ;        C:\Users\Travis\Documents\GitHub\eeceProject2\eeceProject2\Car_Project_2.c:208: return GetADC(3); //for now channel 0 is left motor
0102 758203     709            mov     dpl,#0x03
0105 020100     710            ljmp    _GetADC
0108            711   ;------------------------------------------------------------
0108            712   ;Allocation info for local variables in function 'Stop_Car'
0108            713   ;------------------------------------------------------------
0108            714   ;------------------------------------------------------------
0108            715   ;        C:\Users\Travis\Documents\GitHub\eeceProject2\eeceProject2\Car_Project_2.c:212: void Stop_Car (void){
0108            716   ;        -----------------------------------------
0108            717   ;         function Stop_Car
0108            718   ;        -----------------------------------------
0108            719   _Stop_Car:
0108            720   ;        C:\Users\Travis\Documents\GitHub\eeceProject2\eeceProject2\Car_Project_2.c:213: Stop_Right_Motor();
0108 120100     721            lcall   _Stop_Right_Motor
010B            722   ;        C:\Users\Travis\Documents\GitHub\eeceProject2\eeceProject2\Car_Project_2.c:214: Stop_Left_Motor();
010B 020100     723            ljmp    _Stop_Left_Motor
010E            724   ;------------------------------------------------------------
010E            725   ;Allocation info for local variables in function 'Face_Transmitter'
010E            726   ;------------------------------------------------------------
010E            727   ;right_distance            Allocated to registers r2 r3 
010E            728   ;left_distance             Allocated to registers r4 r5 
010E            729   ;------------------------------------------------------------
010E            730   ;        C:\Users\Travis\Documents\GitHub\eeceProject2\eeceProject2\Car_Project_2.c:218: void Face_Transmitter(void){
010E            731   ;        -----------------------------------------
010E            732   ;         function Face_Transmitter
010E            733   ;        -----------------------------------------
010E            734   _Face_Transmitter:
010E            735   ;        C:\Users\Travis\Documents\GitHub\eeceProject2\eeceProject2\Car_Project_2.c:222: right_distance = Get_Right_Distance();
010E 120100     736            lcall   _Get_Right_Distance
0111 AA82       737            mov     r2,dpl
0113 AB83       738            mov     r3,dph
0115            739   ;        C:\Users\Travis\Documents\GitHub\eeceProject2\eeceProject2\Car_Project_2.c:223: left_distance = Get_Left_Distance();
0115 C002       740            push    ar2
0117 C003       741            push    ar3
0119 120100     742            lcall   _Get_Left_Distance
011C AC82       743            mov     r4,dpl
011E AD83       744            mov     r5,dph
0120 D003       745            pop     ar3
0122 D002       746            pop     ar2
0124            747   ;        C:\Users\Travis\Documents\GitHub\eeceProject2\eeceProject2\Car_Project_2.c:228: printf(" \n Before Turning!!!!!!!!! Right Voltage Reading: %u, Left Voltage Reading: %u", right_distance, left_distance);
0124 C002       748            push    ar2
0126 C003       749            push    ar3
0128 C004       750            push    ar4
012A C005       751            push    ar5
012C C004       752            push    ar4
012E C005       753            push    ar5
0130 C002       754            push    ar2
0132 C003       755            push    ar3
0134 74F0       756            mov     a,#__str_0
0136 C0E0       757            push    acc
0138 7490       758            mov     a,#(__str_0 >> 8)
013A C0E0       759            push    acc
013C 7480       760            mov     a,#0x80
013E C0E0       761            push    acc
0140 120100     762            lcall   _printf
0143 E581       763            mov     a,sp
0145 24F9       764            add     a,#0xf9
0147 F581       765            mov     sp,a
0149 D005       766            pop     ar5
014B D004       767            pop     ar4
014D D003       768            pop     ar3
014F D002       769            pop     ar2
0151            770   ;        C:\Users\Travis\Documents\GitHub\eeceProject2\eeceProject2\Car_Project_2.c:229: if (right_distance - left_distance > 50){
0151 EA         771            mov     a,r2
0152 C3         772            clr     c
0153 9C         773            subb    a,r4
0154 FE         774            mov     r6,a
0155 EB         775            mov     a,r3
0156 9D         776            subb    a,r5
0157 FF         777            mov     r7,a
0158 C3         778            clr     c
0159 7432       779            mov     a,#0x32
015B 9E         780            subb    a,r6
015C E4         781            clr     a
015D 9F         782            subb    a,r7
015E 5001       783            jnc     L015010?
0160            784   ;        C:\Users\Travis\Documents\GitHub\eeceProject2\eeceProject2\Car_Project_2.c:231: while(right_distance > left_distance ){
0160            785   L015001?:
0160 C3         786            clr     c
0161 EC         787            mov     a,r4
0162 9A         788            subb    a,r2
0163 ED         789            mov     a,r5
0164 9B         790            subb    a,r3
0165 5001       791            jnc     L015003?
0167            792   ;        C:\Users\Travis\Documents\GitHub\eeceProject2\eeceProject2\Car_Project_2.c:232: Turn_Car_Right();
0167 120100     793            lcall   _Turn_Car_Right
016A            794   ;        C:\Users\Travis\Documents\GitHub\eeceProject2\eeceProject2\Car_Project_2.c:233: right_distance = Get_Right_Distance();
016A 120100     795            lcall   _Get_Right_Distance
016D AA82       796            mov     r2,dpl
016F AB83       797            mov     r3,dph
0171            798   ;        C:\Users\Travis\Documents\GitHub\eeceProject2\eeceProject2\Car_Project_2.c:234: left_distance = Get_Left_Distance();
0171 C002       799            push    ar2
0173 C003       800            push    ar3
0175 120100     801            lcall   _Get_Left_Distance
0178 AC82       802            mov     r4,dpl
017A AD83       803            mov     r5,dph
017C D003       804            pop     ar3
017E D002       805            pop     ar2
0180            806   ;        C:\Users\Travis\Documents\GitHub\eeceProject2\eeceProject2\Car_Project_2.c:235: printf(" \n First Loop Right Voltage Reading: %u, Left Voltage Reading: %u", right_distance, left_distance);
0180 C002       807            push    ar2
0182 C003       808            push    ar3
0184 C004       809            push    ar4
0186 C005       810            push    ar5
0188 C004       811            push    ar4
018A C005       812            push    ar5
018C C002       813            push    ar2
018E C003       814            push    ar3
0190 7470       815            mov     a,#__str_1
0192 C0E0       816            push    acc
0194 7492       817            mov     a,#(__str_1 >> 8)
0196 C0E0       818            push    acc
0198 7480       819            mov     a,#0x80
019A C0E0       820            push    acc
019C 120100     821            lcall   _printf
019F E581       822            mov     a,sp
01A1 24F9       823            add     a,#0xf9
01A3 F581       824            mov     sp,a
01A5            825   ;        C:\Users\Travis\Documents\GitHub\eeceProject2\eeceProject2\Car_Project_2.c:236: printf("\r");
01A5 74B0       826            mov     a,#__str_2
01A7 C0E0       827            push    acc
01A9 7492       828            mov     a,#(__str_2 >> 8)
01AB C0E0       829            push    acc
01AD 7480       830            mov     a,#0x80
01AF C0E0       831            push    acc
01B1 120100     832            lcall   _printf
01B4 1581       833            dec     sp
01B6 1581       834            dec     sp
01B8 1581       835            dec     sp
01BA D005       836            pop     ar5
01BC D004       837            pop     ar4
01BE D003       838            pop     ar3
01C0 D002       839            pop     ar2
01C2 8001       840            sjmp    L015001?
01C4            841   L015003?:
01C4            842   ;        C:\Users\Travis\Documents\GitHub\eeceProject2\eeceProject2\Car_Project_2.c:238: Stop_Car();
01C4 120100     843            lcall   _Stop_Car
01C7 8001       844            sjmp    L015011?
01C9            845   L015010?:
01C9            846   ;        C:\Users\Travis\Documents\GitHub\eeceProject2\eeceProject2\Car_Project_2.c:240: else if (left_distance - right_distance > 30){
01C9 EC         847            mov     a,r4
01CA C3         848            clr     c
01CB 9A         849            subb    a,r2
01CC FE         850            mov     r6,a
01CD ED         851            mov     a,r5
01CE 9B         852            subb    a,r3
01CF FF         853            mov     r7,a
01D0 C3         854            clr     c
01D1 741E       855            mov     a,#0x1E
01D3 9E         856            subb    a,r6
01D4 E4         857            clr     a
01D5 9F         858            subb    a,r7
01D6 5001       859            jnc     L015011?
01D8            860   ;        C:\Users\Travis\Documents\GitHub\eeceProject2\eeceProject2\Car_Project_2.c:242: while(left_distance > right_distance ){
01D8            861   L015004?:
01D8 C3         862            clr     c
01D9 EA         863            mov     a,r2
01DA 9C         864            subb    a,r4
01DB EB         865            mov     a,r3
01DC 9D         866            subb    a,r5
01DD 5001       867            jnc     L015006?
01DF            868   ;        C:\Users\Travis\Documents\GitHub\eeceProject2\eeceProject2\Car_Project_2.c:243: Turn_Car_Left();
01DF 120100     869            lcall   _Turn_Car_Left
01E2            870   ;        C:\Users\Travis\Documents\GitHub\eeceProject2\eeceProject2\Car_Project_2.c:244: right_distance = Get_Right_Distance();
01E2 120100     871            lcall   _Get_Right_Distance
01E5 AA82       872            mov     r2,dpl
01E7 AB83       873            mov     r3,dph
01E9            874   ;        C:\Users\Travis\Documents\GitHub\eeceProject2\eeceProject2\Car_Project_2.c:245: left_distance = Get_Left_Distance();
01E9 C002       875            push    ar2
01EB C003       876            push    ar3
01ED 120100     877            lcall   _Get_Left_Distance
01F0 AC82       878            mov     r4,dpl
01F2 AD83       879            mov     r5,dph
01F4 D003       880            pop     ar3
01F6 D002       881            pop     ar2
01F8            882   ;        C:\Users\Travis\Documents\GitHub\eeceProject2\eeceProject2\Car_Project_2.c:246: printf(" \n Second Loop Right Voltage Reading: %u, Left Voltage Reading: %u", right_distance, left_distance);
01F8 C002       883            push    ar2
01FA C003       884            push    ar3
01FC C004       885            push    ar4
01FE C005       886            push    ar5
0200 C004       887            push    ar4
0202 C005       888            push    ar5
0204 C002       889            push    ar2
0206 C003       890            push    ar3
0208 74B0       891            mov     a,#__str_3
020A C0E0       892            push    acc
020C 7493       893            mov     a,#(__str_3 >> 8)
020E C0E0       894            push    acc
0210 7480       895            mov     a,#0x80
0212 C0E0       896            push    acc
0214 120100     897            lcall   _printf
0217 E581       898            mov     a,sp
0219 24F9       899            add     a,#0xf9
021B F581       900            mov     sp,a
021D            901   ;        C:\Users\Travis\Documents\GitHub\eeceProject2\eeceProject2\Car_Project_2.c:247: printf("\r");
021D 74B0       902            mov     a,#__str_2
021F C0E0       903            push    acc
0221 7492       904            mov     a,#(__str_2 >> 8)
0223 C0E0       905            push    acc
0225 7480       906            mov     a,#0x80
0227 C0E0       907            push    acc
0229 120100     908            lcall   _printf
022C 1581       909            dec     sp
022E 1581       910            dec     sp
0230 1581       911            dec     sp
0232 D005       912            pop     ar5
0234 D004       913            pop     ar4
0236 D003       914            pop     ar3
0238 D002       915            pop     ar2
023A 8001       916            sjmp    L015004?
023C            917   L015006?:
023C            918   ;        C:\Users\Travis\Documents\GitHub\eeceProject2\eeceProject2\Car_Project_2.c:249: Stop_Car();
023C 120100     919            lcall   _Stop_Car
023F            920   L015011?:
023F            921   ;        C:\Users\Travis\Documents\GitHub\eeceProject2\eeceProject2\Car_Project_2.c:251: printf("made through both loops");
023F 74F0       922            mov     a,#__str_4
0241 C0E0       923            push    acc
0243 7493       924            mov     a,#(__str_4 >> 8)
0245 C0E0       925            push    acc
0247 7480       926            mov     a,#0x80
0249 C0E0       927            push    acc
024B 120100     928            lcall   _printf
024E 1581       929            dec     sp
0250 1581       930            dec     sp
0252 1581       931            dec     sp
0254            932   ;        C:\Users\Travis\Documents\GitHub\eeceProject2\eeceProject2\Car_Project_2.c:253: return;
0254 22         933            ret
0255            934   ;------------------------------------------------------------
0255            935   ;Allocation info for local variables in function 'Wait_X_Time'
0255            936   ;------------------------------------------------------------
0255            937   ;time                      Allocated to registers r2 r3 
0255            938   ;i                         Allocated to registers r4 r5 
0255            939   ;------------------------------------------------------------
0255            940   ;        C:\Users\Travis\Documents\GitHub\eeceProject2\eeceProject2\Car_Project_2.c:257: void Wait_X_Time(int time){
0255            941   ;        -----------------------------------------
0255            942   ;         function Wait_X_Time
0255            943   ;        -----------------------------------------
0255            944   _Wait_X_Time:
0255 AA82       945            mov     r2,dpl
0257 AB83       946            mov     r3,dph
0259            947   ;        C:\Users\Travis\Documents\GitHub\eeceProject2\eeceProject2\Car_Project_2.c:259: for (i = 0; i < time; ++i){
0259 7C00       948            mov     r4,#0x00
025B 7D00       949            mov     r5,#0x00
025D            950   L016001?:
025D C3         951            clr     c
025E EC         952            mov     a,r4
025F 9A         953            subb    a,r2
0260 ED         954            mov     a,r5
0261 6480       955            xrl     a,#0x80
0263 8BF0       956            mov     b,r3
0265 63F080     957            xrl     b,#0x80
0268 95F0       958            subb    a,b
026A 5001       959            jnc     L016005?
026C            960   ;        C:\Users\Travis\Documents\GitHub\eeceProject2\eeceProject2\Car_Project_2.c:260: Wait_1ms();
026C C002       961            push    ar2
026E C003       962            push    ar3
0270 C004       963            push    ar4
0272 C005       964            push    ar5
0274 120100     965            lcall   _Wait_1ms
0277 D005       966            pop     ar5
0279 D004       967            pop     ar4
027B D003       968            pop     ar3
027D D002       969            pop     ar2
027F            970   ;        C:\Users\Travis\Documents\GitHub\eeceProject2\eeceProject2\Car_Project_2.c:259: for (i = 0; i < time; ++i){
027F 0C         971            inc     r4
0280 BC0030     972            cjne    r4,#0x00,L016001?
0283 0D         973            inc     r5
0284 8001       974            sjmp    L016001?
0286            975   L016005?:
0286 22         976            ret
0287            977   ;------------------------------------------------------------
0287            978   ;Allocation info for local variables in function 'Wait_1ms'
0287            979   ;------------------------------------------------------------
0287            980   ;------------------------------------------------------------
0287            981   ;        C:\Users\Travis\Documents\GitHub\eeceProject2\eeceProject2\Car_Project_2.c:264: void Wait_1ms(void){
0287            982   ;        -----------------------------------------
0287            983   ;         function Wait_1ms
0287            984   ;        -----------------------------------------
0287            985   _Wait_1ms:
0287            986   ;        C:\Users\Travis\Documents\GitHub\eeceProject2\eeceProject2\Car_Project_2.c:275: _endasm;
0287            987            
0287            988      ;For a 22.1184MHz crystal one machine cycle
0287            989      ;takes 12/22.1184MHz=0.5425347us
0287 7A02       990                  mov R2, #2
0289            991             Lz3:
0289 7905       992            mov R1, #5
028B            993             Lz2:
028B 785C       994            mov R0, #92
028D            995             Lz1:
028D D870       996            djnz R0, Lz1 ; 2 machine cycles-> 2*0.5425347us*184=200us
028F D930       997                  djnz R1, Lz2 ; 200us*250=0.05s
0291 DAF0       998                  djnz R2, Lz3 ; 0.05s*20=50ms
0293 22         999                  ret
0294           1000                
0294 22        1001            ret
0295           1002   ;------------------------------------------------------------
0295           1003   ;Allocation info for local variables in function 'Parallel_Park_Wait_1'
0295           1004   ;------------------------------------------------------------
0295           1005   ;------------------------------------------------------------
0295           1006   ;        C:\Users\Travis\Documents\GitHub\eeceProject2\eeceProject2\Car_Project_2.c:279: void Parallel_Park_Wait_1(void){
0295           1007   ;        -----------------------------------------
0295           1008   ;         function Parallel_Park_Wait_1
0295           1009   ;        -----------------------------------------
0295           1010   _Parallel_Park_Wait_1:
0295           1011   ;        C:\Users\Travis\Documents\GitHub\eeceProject2\eeceProject2\Car_Project_2.c:290: _endasm;
0295           1012            
0295           1013      ;For a 22.1184MHz crystal one machine cycle
0295           1014      ;takes 12/22.1184MHz=0.5425347us
0295 7A14      1015                  mov R2, #20 ;25
0297           1016             La3:
0297 79F8      1017            mov R1, #248
0299           1018             La2:
0299 78B8      1019            mov R0, #184
029B           1020             La1:
029B D830      1021            djnz R0, La1 ; 2 machine cycles-> 2*0.5425347us*184=200us
029D D9F0      1022                  djnz R1, La2 ; 200us*250=0.05s
029F DAB0      1023                  djnz R2, La3 ; 0.05s*20=50ms
02A1 22        1024                  ret
02A2           1025                
02A2 22        1026            ret
02A3           1027   ;------------------------------------------------------------
02A3           1028   ;Allocation info for local variables in function 'Parallel_Park_Wait_2'
02A3           1029   ;------------------------------------------------------------
02A3           1030   ;------------------------------------------------------------
02A3           1031   ;        C:\Users\Travis\Documents\GitHub\eeceProject2\eeceProject2\Car_Project_2.c:294: void Parallel_Park_Wait_2(void){
02A3           1032   ;        -----------------------------------------
02A3           1033   ;         function Parallel_Park_Wait_2
02A3           1034   ;        -----------------------------------------
02A3           1035   _Parallel_Park_Wait_2:
02A3           1036   ;        C:\Users\Travis\Documents\GitHub\eeceProject2\eeceProject2\Car_Project_2.c:305: _endasm;
02A3           1037            
02A3           1038      ;For a 22.1184MHz crystal one machine cycle
02A3           1039      ;takes 12/22.1184MHz=0.5425347us
02A3 7A01      1040                  mov R2, #1
02A5           1041             Lb3:
02A5 79F8      1042            mov R1, #248
02A7           1043             Lb2:
02A7 78B8      1044            mov R0, #184
02A9           1045             Lb1:
02A9 D8F0      1046            djnz R0, Lb1 ; 2 machine cycles-> 2*0.5425347us*184=200us
02AB D9B0      1047                  djnz R1, Lb2 ; 200us*250=0.05s
02AD DA70      1048                  djnz R2, Lb3 ; 0.05s*20=50ms
02AF 22        1049                  ret
02B0           1050                
02B0 22        1051            ret
02B1           1052   ;------------------------------------------------------------
02B1           1053   ;Allocation info for local variables in function 'Parallel_Park_Wait_3'
02B1           1054   ;------------------------------------------------------------
02B1           1055   ;------------------------------------------------------------
02B1           1056   ;        C:\Users\Travis\Documents\GitHub\eeceProject2\eeceProject2\Car_Project_2.c:309: void Parallel_Park_Wait_3(void){
02B1           1057   ;        -----------------------------------------
02B1           1058   ;         function Parallel_Park_Wait_3
02B1           1059   ;        -----------------------------------------
02B1           1060   _Parallel_Park_Wait_3:
02B1           1061   ;        C:\Users\Travis\Documents\GitHub\eeceProject2\eeceProject2\Car_Project_2.c:320: _endasm;
02B1           1062            
02B1           1063      ;For a 22.1184MHz crystal one machine cycle
02B1           1064      ;takes 12/22.1184MHz=0.5425347us
02B1 7A0C      1065                  mov R2, #12
02B3           1066             Lc3:
02B3 79F8      1067            mov R1, #248
02B5           1068             Lc2:
02B5 78B8      1069            mov R0, #184
02B7           1070             Lc1:
02B7 D8B0      1071            djnz R0, Lc1 ; 2 machine cycles-> 2*0.5425347us*184=200us
02B9 D970      1072                  djnz R1, Lc2 ; 200us*250=0.05s
02BB DA30      1073                  djnz R2, Lc3 ; 0.05s*20=50ms
02BD 22        1074                  ret
02BE           1075                
02BE 22        1076            ret
02BF           1077   ;------------------------------------------------------------
02BF           1078   ;Allocation info for local variables in function 'Parallel_Park_Wait_4'
02BF           1079   ;------------------------------------------------------------
02BF           1080   ;------------------------------------------------------------
02BF           1081   ;        C:\Users\Travis\Documents\GitHub\eeceProject2\eeceProject2\Car_Project_2.c:324: void Parallel_Park_Wait_4(void){
02BF           1082   ;        -----------------------------------------
02BF           1083   ;         function Parallel_Park_Wait_4
02BF           1084   ;        -----------------------------------------
02BF           1085   _Parallel_Park_Wait_4:
02BF           1086   ;        C:\Users\Travis\Documents\GitHub\eeceProject2\eeceProject2\Car_Project_2.c:335: _endasm;
02BF           1087            
02BF           1088      ;For a 22.1184MHz crystal one machine cycle
02BF           1089      ;takes 12/22.1184MHz=0.5425347us
02BF 7A15      1090                  mov R2, #21
02C1           1091             Ld3:
02C1 79F8      1092            mov R1, #248
02C3           1093             Ld2:
02C3 78B8      1094            mov R0, #184
02C5           1095             Ld1:
02C5 D870      1096            djnz R0, Ld1 ; 2 machine cycles-> 2*0.5425347us*184=200us
02C7 D930      1097                  djnz R1, Ld2 ; 200us*250=0.05s
02C9 DAF0      1098                  djnz R2, Ld3 ; 0.05s*20=50ms
02CB 22        1099                  ret
02CC           1100                
02CC 22        1101            ret
02CD           1102   ;------------------------------------------------------------
02CD           1103   ;Allocation info for local variables in function 'Parallel_Park_Wait_5'
02CD           1104   ;------------------------------------------------------------
02CD           1105   ;------------------------------------------------------------
02CD           1106   ;        C:\Users\Travis\Documents\GitHub\eeceProject2\eeceProject2\Car_Project_2.c:339: void Parallel_Park_Wait_5(void){
02CD           1107   ;        -----------------------------------------
02CD           1108   ;         function Parallel_Park_Wait_5
02CD           1109   ;        -----------------------------------------
02CD           1110   _Parallel_Park_Wait_5:
02CD           1111   ;        C:\Users\Travis\Documents\GitHub\eeceProject2\eeceProject2\Car_Project_2.c:350: _endasm;
02CD           1112            
02CD           1113      ;For a 22.1184MHz crystal one machine cycle
02CD           1114      ;takes 12/22.1184MHz=0.5425347us
02CD 7A0D      1115                  mov R2, #13
02CF           1116             Le3:
02CF 79F8      1117            mov R1, #248
02D1           1118             Le2:
02D1 78B8      1119            mov R0, #184
02D3           1120             Le1:
02D3 D830      1121            djnz R0, Le1 ; 2 machine cycles-> 2*0.5425347us*184=200us
02D5 D9F0      1122                  djnz R1, Le2 ; 200us*250=0.05s
02D7 DAB0      1123                  djnz R2, Le3 ; 0.05s*20=50ms
02D9 22        1124                  ret
02DA           1125                
02DA 22        1126            ret
02DB           1127   ;------------------------------------------------------------
02DB           1128   ;Allocation info for local variables in function 'Parallel_Park_Wait_6'
02DB           1129   ;------------------------------------------------------------
02DB           1130   ;------------------------------------------------------------
02DB           1131   ;        C:\Users\Travis\Documents\GitHub\eeceProject2\eeceProject2\Car_Project_2.c:354: void Parallel_Park_Wait_6(void){
02DB           1132   ;        -----------------------------------------
02DB           1133   ;         function Parallel_Park_Wait_6
02DB           1134   ;        -----------------------------------------
02DB           1135   _Parallel_Park_Wait_6:
02DB           1136   ;        C:\Users\Travis\Documents\GitHub\eeceProject2\eeceProject2\Car_Project_2.c:365: _endasm;
02DB           1137            
02DB           1138      ;For a 22.1184MHz crystal one machine cycle
02DB           1139      ;takes 12/22.1184MHz=0.5425347us
02DB 7A01      1140                  mov R2, #1
02DD           1141             Lf3:
02DD 79F8      1142            mov R1, #248
02DF           1143             Lf2:
02DF 78B8      1144            mov R0, #184
02E1           1145             Lf1:
02E1 D8F0      1146            djnz R0, Lf1 ; 2 machine cycles-> 2*0.5425347us*184=200us
02E3 D9B0      1147                  djnz R1, Lf2 ; 200us*250=0.05s
02E5 DA70      1148                  djnz R2, Lf3 ; 0.05s*20=50ms
02E7 22        1149                  ret
02E8           1150                
02E8 22        1151            ret
02E9           1152   ;------------------------------------------------------------
02E9           1153   ;Allocation info for local variables in function 'Move_Forwards'
02E9           1154   ;------------------------------------------------------------
02E9           1155   ;------------------------------------------------------------
02E9           1156   ;        C:\Users\Travis\Documents\GitHub\eeceProject2\eeceProject2\Car_Project_2.c:370: void Move_Forwards(void){
02E9           1157   ;        -----------------------------------------
02E9           1158   ;         function Move_Forwards
02E9           1159   ;        -----------------------------------------
02E9           1160   _Move_Forwards:
02E9           1161   ;        C:\Users\Travis\Documents\GitHub\eeceProject2\eeceProject2\Car_Project_2.c:371: Move_Right_Motor_Forwards();
02E9 120100    1162            lcall   _Move_Right_Motor_Forwards
02EC           1163   ;        C:\Users\Travis\Documents\GitHub\eeceProject2\eeceProject2\Car_Project_2.c:372: Move_Left_Motor_Forwards();
02EC 020100    1164            ljmp    _Move_Left_Motor_Forwards
02EF           1165   ;------------------------------------------------------------
02EF           1166   ;Allocation info for local variables in function 'Parallel_Park'
02EF           1167   ;------------------------------------------------------------
02EF           1168   ;------------------------------------------------------------
02EF           1169   ;        C:\Users\Travis\Documents\GitHub\eeceProject2\eeceProject2\Car_Project_2.c:376: void Parallel_Park(void){
02EF           1170   ;        -----------------------------------------
02EF           1171   ;         function Parallel_Park
02EF           1172   ;        -----------------------------------------
02EF           1173   _Parallel_Park:
02EF           1174   ;        C:\Users\Travis\Documents\GitHub\eeceProject2\eeceProject2\Car_Project_2.c:377: Move_Backwards();
02EF 120100    1175            lcall   _Move_Backwards
02F2           1176   ;        C:\Users\Travis\Documents\GitHub\eeceProject2\eeceProject2\Car_Project_2.c:378: Wait_X_Time(1300);
02F2 900514    1177            mov     dptr,#0x0514
02F5 120100    1178            lcall   _Wait_X_Time
02F8           1179   ;        C:\Users\Travis\Documents\GitHub\eeceProject2\eeceProject2\Car_Project_2.c:380: Stop_Car();
02F8 120100    1180            lcall   _Stop_Car
02FB           1181   ;        C:\Users\Travis\Documents\GitHub\eeceProject2\eeceProject2\Car_Project_2.c:381: Move_Left_Motor_Backwards();
02FB 120100    1182            lcall   _Move_Left_Motor_Backwards
02FE           1183   ;        C:\Users\Travis\Documents\GitHub\eeceProject2\eeceProject2\Car_Project_2.c:382: Wait_X_Time(1000);
02FE 9003E8    1184            mov     dptr,#0x03E8
0301 120100    1185            lcall   _Wait_X_Time
0304           1186   ;        C:\Users\Travis\Documents\GitHub\eeceProject2\eeceProject2\Car_Project_2.c:383: Move_Right_Motor_Backwards();
0304 120100    1187            lcall   _Move_Right_Motor_Backwards
0307           1188   ;        C:\Users\Travis\Documents\GitHub\eeceProject2\eeceProject2\Car_Project_2.c:384: Wait_X_Time(500);
0307 9001F4    1189            mov     dptr,#0x01F4
030A 120100    1190            lcall   _Wait_X_Time
030D           1191   ;        C:\Users\Travis\Documents\GitHub\eeceProject2\eeceProject2\Car_Project_2.c:385: Stop_Car();
030D 120100    1192            lcall   _Stop_Car
0310           1193   ;        C:\Users\Travis\Documents\GitHub\eeceProject2\eeceProject2\Car_Project_2.c:386: Move_Right_Motor_Backwards();
0310 120100    1194            lcall   _Move_Right_Motor_Backwards
0313           1195   ;        C:\Users\Travis\Documents\GitHub\eeceProject2\eeceProject2\Car_Project_2.c:387: Wait_X_Time(985);
0313 9003D9    1196            mov     dptr,#0x03D9
0316 120100    1197            lcall   _Wait_X_Time
0319           1198   ;        C:\Users\Travis\Documents\GitHub\eeceProject2\eeceProject2\Car_Project_2.c:388: Stop_Car();
0319 120100    1199            lcall   _Stop_Car
031C           1200   ;        C:\Users\Travis\Documents\GitHub\eeceProject2\eeceProject2\Car_Project_2.c:390: wait1s(); //replace with while(1) loop to tell the robot to unParallel park
031C 120100    1201            lcall   _wait1s
031F           1202   ;        C:\Users\Travis\Documents\GitHub\eeceProject2\eeceProject2\Car_Project_2.c:391: wait1s();
031F 120100    1203            lcall   _wait1s
0322           1204   ;        C:\Users\Travis\Documents\GitHub\eeceProject2\eeceProject2\Car_Project_2.c:392: wait1s();
0322 120100    1205            lcall   _wait1s
0325           1206   ;        C:\Users\Travis\Documents\GitHub\eeceProject2\eeceProject2\Car_Project_2.c:393: wait1s();
0325 120100    1207            lcall   _wait1s
0328           1208   ;        C:\Users\Travis\Documents\GitHub\eeceProject2\eeceProject2\Car_Project_2.c:395: Move_Right_Motor_Forwards();
0328 120100    1209            lcall   _Move_Right_Motor_Forwards
032B           1210   ;        C:\Users\Travis\Documents\GitHub\eeceProject2\eeceProject2\Car_Project_2.c:396: Wait_X_Time(985);
032B 9003D9    1211            mov     dptr,#0x03D9
032E 120100    1212            lcall   _Wait_X_Time
0331           1213   ;        C:\Users\Travis\Documents\GitHub\eeceProject2\eeceProject2\Car_Project_2.c:397: Move_Left_Motor_Forwards();
0331 120100    1214            lcall   _Move_Left_Motor_Forwards
0334           1215   ;        C:\Users\Travis\Documents\GitHub\eeceProject2\eeceProject2\Car_Project_2.c:398: Wait_X_Time(600);
0334 900258    1216            mov     dptr,#0x0258
0337 120100    1217            lcall   _Wait_X_Time
033A           1218   ;        C:\Users\Travis\Documents\GitHub\eeceProject2\eeceProject2\Car_Project_2.c:399: Stop_Car();
033A 120100    1219            lcall   _Stop_Car
033D           1220   ;        C:\Users\Travis\Documents\GitHub\eeceProject2\eeceProject2\Car_Project_2.c:400: Move_Left_Motor_Forwards();
033D 120100    1221            lcall   _Move_Left_Motor_Forwards
0340           1222   ;        C:\Users\Travis\Documents\GitHub\eeceProject2\eeceProject2\Car_Project_2.c:401: Wait_X_Time(1000);
0340 9003E8    1223            mov     dptr,#0x03E8
0343 120100    1224            lcall   _Wait_X_Time
0346           1225   ;        C:\Users\Travis\Documents\GitHub\eeceProject2\eeceProject2\Car_Project_2.c:402: Move_Right_Motor_Forwards();
0346 120100    1226            lcall   _Move_Right_Motor_Forwards
0349           1227   ;        C:\Users\Travis\Documents\GitHub\eeceProject2\eeceProject2\Car_Project_2.c:403: Wait_X_Time(1300);
0349 900514    1228            mov     dptr,#0x0514
034C 120100    1229            lcall   _Wait_X_Time
034F           1230   ;        C:\Users\Travis\Documents\GitHub\eeceProject2\eeceProject2\Car_Project_2.c:404: Stop_Car();
034F 020100    1231            ljmp    _Stop_Car
0352           1232   ;------------------------------------------------------------
0352           1233   ;Allocation info for local variables in function 'Undo_Parallel_Park'
0352           1234   ;------------------------------------------------------------
0352           1235   ;------------------------------------------------------------
0352           1236   ;        C:\Users\Travis\Documents\GitHub\eeceProject2\eeceProject2\Car_Project_2.c:407: void Undo_Parallel_Park (void){
0352           1237   ;        -----------------------------------------
0352           1238   ;         function Undo_Parallel_Park
0352           1239   ;        -----------------------------------------
0352           1240   _Undo_Parallel_Park:
0352           1241   ;        C:\Users\Travis\Documents\GitHub\eeceProject2\eeceProject2\Car_Project_2.c:408: Turn_Car_Left();
0352 120100    1242            lcall   _Turn_Car_Left
0355           1243   ;        C:\Users\Travis\Documents\GitHub\eeceProject2\eeceProject2\Car_Project_2.c:409: Parallel_Park_Wait_3();
0355 120100    1244            lcall   _Parallel_Park_Wait_3
0358           1245   ;        C:\Users\Travis\Documents\GitHub\eeceProject2\eeceProject2\Car_Project_2.c:411: Move_Backwards();
0358 120100    1246            lcall   _Move_Backwards
035B           1247   ;        C:\Users\Travis\Documents\GitHub\eeceProject2\eeceProject2\Car_Project_2.c:412: Parallel_Park_Wait_4();
035B 120100    1248            lcall   _Parallel_Park_Wait_4
035E           1249   ;        C:\Users\Travis\Documents\GitHub\eeceProject2\eeceProject2\Car_Project_2.c:414: Stop_Car();
035E 120100    1250            lcall   _Stop_Car
0361           1251   ;        C:\Users\Travis\Documents\GitHub\eeceProject2\eeceProject2\Car_Project_2.c:415: Turn_Car_Right();
0361 120100    1252            lcall   _Turn_Car_Right
0364           1253   ;        C:\Users\Travis\Documents\GitHub\eeceProject2\eeceProject2\Car_Project_2.c:416: Parallel_Park_Wait_3();
0364 120100    1254            lcall   _Parallel_Park_Wait_3
0367           1255   ;        C:\Users\Travis\Documents\GitHub\eeceProject2\eeceProject2\Car_Project_2.c:418: Move_Backwards();
0367 120100    1256            lcall   _Move_Backwards
036A           1257   ;        C:\Users\Travis\Documents\GitHub\eeceProject2\eeceProject2\Car_Project_2.c:419: Parallel_Park_Wait_1();
036A 120100    1258            lcall   _Parallel_Park_Wait_1
036D           1259   ;        C:\Users\Travis\Documents\GitHub\eeceProject2\eeceProject2\Car_Project_2.c:421: Stop_Car();
036D 120100    1260            lcall   _Stop_Car
0370           1261   ;        C:\Users\Travis\Documents\GitHub\eeceProject2\eeceProject2\Car_Project_2.c:422: Parallel_Park_Wait_5();
0370 120100    1262            lcall   _Parallel_Park_Wait_5
0373           1263   ;        C:\Users\Travis\Documents\GitHub\eeceProject2\eeceProject2\Car_Project_2.c:424: Stop_Car();
0373 120100    1264            lcall   _Stop_Car
0376           1265   ;        C:\Users\Travis\Documents\GitHub\eeceProject2\eeceProject2\Car_Project_2.c:425: Parallel_Park_Wait_6();
0376 020100    1266            ljmp    _Parallel_Park_Wait_6
0379           1267   ;------------------------------------------------------------
0379           1268   ;Allocation info for local variables in function 'Turn_Car_Left'
0379           1269   ;------------------------------------------------------------
0379           1270   ;------------------------------------------------------------
0379           1271   ;        C:\Users\Travis\Documents\GitHub\eeceProject2\eeceProject2\Car_Project_2.c:431: void Turn_Car_Left(void){
0379           1272   ;        -----------------------------------------
0379           1273   ;         function Turn_Car_Left
0379           1274   ;        -----------------------------------------
0379           1275   _Turn_Car_Left:
0379           1276   ;        C:\Users\Travis\Documents\GitHub\eeceProject2\eeceProject2\Car_Project_2.c:432: Move_Right_Motor_Backwards();
0379 020100    1277            ljmp    _Move_Right_Motor_Backwards
037C           1278   ;------------------------------------------------------------
037C           1279   ;Allocation info for local variables in function 'Turn_Car_Right'
037C           1280   ;------------------------------------------------------------
037C           1281   ;------------------------------------------------------------
037C           1282   ;        C:\Users\Travis\Documents\GitHub\eeceProject2\eeceProject2\Car_Project_2.c:438: void Turn_Car_Right(void){
037C           1283   ;        -----------------------------------------
037C           1284   ;         function Turn_Car_Right
037C           1285   ;        -----------------------------------------
037C           1286   _Turn_Car_Right:
037C           1287   ;        C:\Users\Travis\Documents\GitHub\eeceProject2\eeceProject2\Car_Project_2.c:439: Move_Left_Motor_Backwards(); //Same thoughts as above, (in Turn_Car_Left)
037C 020100    1288            ljmp    _Move_Left_Motor_Backwards
037F           1289   ;------------------------------------------------------------
037F           1290   ;Allocation info for local variables in function 'Move_Backwards'
037F           1291   ;------------------------------------------------------------
037F           1292   ;------------------------------------------------------------
037F           1293   ;        C:\Users\Travis\Documents\GitHub\eeceProject2\eeceProject2\Car_Project_2.c:444: void Move_Backwards(void){
037F           1294   ;        -----------------------------------------
037F           1295   ;         function Move_Backwards
037F           1296   ;        -----------------------------------------
037F           1297   _Move_Backwards:
037F           1298   ;        C:\Users\Travis\Documents\GitHub\eeceProject2\eeceProject2\Car_Project_2.c:445: Move_Right_Motor_Backwards();
037F 120100    1299            lcall   _Move_Right_Motor_Backwards
0382           1300   ;        C:\Users\Travis\Documents\GitHub\eeceProject2\eeceProject2\Car_Project_2.c:446: Move_Left_Motor_Backwards();
0382 020100    1301            ljmp    _Move_Left_Motor_Backwards
0385           1302   ;------------------------------------------------------------
0385           1303   ;Allocation info for local variables in function 'Move_Car_Closer'
0385           1304   ;------------------------------------------------------------
0385           1305   ;------------------------------------------------------------
0385           1306   ;        C:\Users\Travis\Documents\GitHub\eeceProject2\eeceProject2\Car_Project_2.c:452: void Move_Car_Closer(void){
0385           1307   ;        -----------------------------------------
0385           1308   ;         function Move_Car_Closer
0385           1309   ;        -----------------------------------------
0385           1310   _Move_Car_Closer:
0385           1311   ;        C:\Users\Travis\Documents\GitHub\eeceProject2\eeceProject2\Car_Project_2.c:455: if(dist_index > 0) dist_index--;
0385 C3        1312            clr     c
0386 E4        1313            clr     a
0387 9500      1314            subb    a,_dist_index
0389 E4        1315            clr     a
038A 6480      1316            xrl     a,#0x80
038C 8501F0    1317            mov     b,(_dist_index + 1)
038F 63F080    1318            xrl     b,#0x80
0392 95F0      1319            subb    a,b
0394 5001      1320            jnc     L030003?
0396 1500      1321            dec     _dist_index
0398 74FF      1322            mov     a,#0xff
039A B50070    1323            cjne    a,_dist_index,L030007?
039D 1501      1324            dec     (_dist_index + 1)
039F           1325   L030007?:
039F           1326   L030003?:
039F 22        1327            ret
03A0           1328   ;------------------------------------------------------------
03A0           1329   ;Allocation info for local variables in function 'Move_Car_Further'
03A0           1330   ;------------------------------------------------------------
03A0           1331   ;------------------------------------------------------------
03A0           1332   ;        C:\Users\Travis\Documents\GitHub\eeceProject2\eeceProject2\Car_Project_2.c:461: void Move_Car_Further(void){
03A0           1333   ;        -----------------------------------------
03A0           1334   ;         function Move_Car_Further
03A0           1335   ;        -----------------------------------------
03A0           1336   _Move_Car_Further:
03A0           1337   ;        C:\Users\Travis\Documents\GitHub\eeceProject2\eeceProject2\Car_Project_2.c:464: if(dist_index < 3) dist_index++;
03A0 C3        1338            clr     c
03A1 E500      1339            mov     a,_dist_index
03A3 9403      1340            subb    a,#0x03
03A5 E501      1341            mov     a,(_dist_index + 1)
03A7 6480      1342            xrl     a,#0x80
03A9 9480      1343            subb    a,#0x80
03AB 5001      1344            jnc     L031003?
03AD 0500      1345            inc     _dist_index
03AF E4        1346            clr     a
03B0 B500F0    1347            cjne    a,_dist_index,L031007?
03B3 0501      1348            inc     (_dist_index + 1)
03B5           1349   L031007?:
03B5           1350   L031003?:
03B5 22        1351            ret
03B6           1352   ;------------------------------------------------------------
03B6           1353   ;Allocation info for local variables in function 'Rotate_Car_180_CW'
03B6           1354   ;------------------------------------------------------------
03B6           1355   ;------------------------------------------------------------
03B6           1356   ;        C:\Users\Travis\Documents\GitHub\eeceProject2\eeceProject2\Car_Project_2.c:468: void Rotate_Car_180_CW(void){
03B6           1357   ;        -----------------------------------------
03B6           1358   ;         function Rotate_Car_180_CW
03B6           1359   ;        -----------------------------------------
03B6           1360   _Rotate_Car_180_CW:
03B6           1361   ;        C:\Users\Travis\Documents\GitHub\eeceProject2\eeceProject2\Car_Project_2.c:469: Stop_Car();
03B6 120100    1362            lcall   _Stop_Car
03B9           1363   ;        C:\Users\Travis\Documents\GitHub\eeceProject2\eeceProject2\Car_Project_2.c:470: Move_Left_Motor_Forwards();
03B9 120100    1364            lcall   _Move_Left_Motor_Forwards
03BC           1365   ;        C:\Users\Travis\Documents\GitHub\eeceProject2\eeceProject2\Car_Project_2.c:471: Move_Right_Motor_Backwards();
03BC 120100    1366            lcall   _Move_Right_Motor_Backwards
03BF           1367   ;        C:\Users\Travis\Documents\GitHub\eeceProject2\eeceProject2\Car_Project_2.c:472: Wait_X_Time(1277); //wait 2000 ms
03BF 9004FD    1368            mov     dptr,#0x04FD
03C2 120100    1369            lcall   _Wait_X_Time
03C5           1370   ;        C:\Users\Travis\Documents\GitHub\eeceProject2\eeceProject2\Car_Project_2.c:473: Stop_Car();
03C5 120100    1371            lcall   _Stop_Car
03C8           1372   ;        C:\Users\Travis\Documents\GitHub\eeceProject2\eeceProject2\Car_Project_2.c:476: if(reverse == 0){
03C8 E5C0      1373            mov     a,_reverse
03CA 7001      1374            jnz     L032002?
03CC           1375   ;        C:\Users\Travis\Documents\GitHub\eeceProject2\eeceProject2\Car_Project_2.c:477: reverse = 1;
03CC 75C001    1376            mov     _reverse,#0x01
03CF           1377   ;        C:\Users\Travis\Documents\GitHub\eeceProject2\eeceProject2\Car_Project_2.c:479: reverse = 0;
03CF 22        1378            ret
03D0           1379   L032002?:
03D0 75C000    1380            mov     _reverse,#0x00
03D3 22        1381            ret
03D4           1382   ;------------------------------------------------------------
03D4           1383   ;Allocation info for local variables in function 'Rotate_Car_180_CCW'
03D4           1384   ;------------------------------------------------------------
03D4           1385   ;------------------------------------------------------------
03D4           1386   ;        C:\Users\Travis\Documents\GitHub\eeceProject2\eeceProject2\Car_Project_2.c:486: void Rotate_Car_180_CCW(void){
03D4           1387   ;        -----------------------------------------
03D4           1388   ;         function Rotate_Car_180_CCW
03D4           1389   ;        -----------------------------------------
03D4           1390   _Rotate_Car_180_CCW:
03D4           1391   ;        C:\Users\Travis\Documents\GitHub\eeceProject2\eeceProject2\Car_Project_2.c:487: Stop_Car();
03D4 120100    1392            lcall   _Stop_Car
03D7           1393   ;        C:\Users\Travis\Documents\GitHub\eeceProject2\eeceProject2\Car_Project_2.c:488: Move_Right_Motor_Forwards();
03D7 120100    1394            lcall   _Move_Right_Motor_Forwards
03DA           1395   ;        C:\Users\Travis\Documents\GitHub\eeceProject2\eeceProject2\Car_Project_2.c:489: Move_Left_Motor_Backwards();
03DA 120100    1396            lcall   _Move_Left_Motor_Backwards
03DD           1397   ;        C:\Users\Travis\Documents\GitHub\eeceProject2\eeceProject2\Car_Project_2.c:490: Wait_X_Time(1277); //wait 2000 ms
03DD 9004FD    1398            mov     dptr,#0x04FD
03E0 120100    1399            lcall   _Wait_X_Time
03E3           1400   ;        C:\Users\Travis\Documents\GitHub\eeceProject2\eeceProject2\Car_Project_2.c:491: Stop_Car();
03E3 120100    1401            lcall   _Stop_Car
03E6           1402   ;        C:\Users\Travis\Documents\GitHub\eeceProject2\eeceProject2\Car_Project_2.c:493: if(reverse == 0){
03E6 E5C0      1403            mov     a,_reverse
03E8 7001      1404            jnz     L033002?
03EA           1405   ;        C:\Users\Travis\Documents\GitHub\eeceProject2\eeceProject2\Car_Project_2.c:494: reverse = 1;
03EA 75C001    1406            mov     _reverse,#0x01
03ED           1407   ;        C:\Users\Travis\Documents\GitHub\eeceProject2\eeceProject2\Car_Project_2.c:496: reverse = 0;
03ED 22        1408            ret
03EE           1409   L033002?:
03EE 75C000    1410            mov     _reverse,#0x00
03F1 22        1411            ret
03F2           1412   ;------------------------------------------------------------
03F2           1413   ;Allocation info for local variables in function 'rx_byte'
03F2           1414   ;------------------------------------------------------------
03F2           1415   ;min                       Allocated to registers r2 r3 
03F2           1416   ;j                         Allocated to registers r5 
03F2           1417   ;val                       Allocated to registers r4 
03F2           1418   ;v                         Allocated to registers r6 r7 
03F2           1419   ;------------------------------------------------------------
03F2           1420   ;        C:\Users\Travis\Documents\GitHub\eeceProject2\eeceProject2\Car_Project_2.c:504: unsigned char rx_byte (int min){
03F2           1421   ;        -----------------------------------------
03F2           1422   ;         function rx_byte
03F2           1423   ;        -----------------------------------------
03F2           1424   _rx_byte:
03F2 AA82      1425            mov     r2,dpl
03F4 AB83      1426            mov     r3,dph
03F6           1427   ;        C:\Users\Travis\Documents\GitHub\eeceProject2\eeceProject2\Car_Project_2.c:509: EA = 0;
03F6 C2AF      1428            clr     _EA
03F8           1429   ;        C:\Users\Travis\Documents\GitHub\eeceProject2\eeceProject2\Car_Project_2.c:510: P1_0 = 0;
03F8 C290      1430            clr     _P1_0
03FA           1431   ;        C:\Users\Travis\Documents\GitHub\eeceProject2\eeceProject2\Car_Project_2.c:511: P1_1 = 0;
03FA C291      1432            clr     _P1_1
03FC           1433   ;        C:\Users\Travis\Documents\GitHub\eeceProject2\eeceProject2\Car_Project_2.c:512: P1_2 = 0;
03FC C292      1434            clr     _P1_2
03FE           1435   ;        C:\Users\Travis\Documents\GitHub\eeceProject2\eeceProject2\Car_Project_2.c:513: P1_4 = 0;
03FE C294      1436            clr     _P1_4
0400           1437   ;        C:\Users\Travis\Documents\GitHub\eeceProject2\eeceProject2\Car_Project_2.c:516: val=0;
0400 7C00      1438            mov     r4,#0x00
0402           1439   ;        C:\Users\Travis\Documents\GitHub\eeceProject2\eeceProject2\Car_Project_2.c:517: wait_one_and_half_bit_time();
0402 C002      1440            push    ar2
0404 C003      1441            push    ar3
0406 C004      1442            push    ar4
0408 120100    1443            lcall   _wait_one_and_half_bit_time
040B D004      1444            pop     ar4
040D D003      1445            pop     ar3
040F D002      1446            pop     ar2
0411           1447   ;        C:\Users\Travis\Documents\GitHub\eeceProject2\eeceProject2\Car_Project_2.c:518: for(j=0; j<8; j++)
0411 7D00      1448            mov     r5,#0x00
0413           1449   L034001?:
0413 BD08F0    1450            cjne    r5,#0x08,L034013?
0416           1451   L034013?:
0416 5001      1452            jnc     L034004?
0418           1453   ;        C:\Users\Travis\Documents\GitHub\eeceProject2\eeceProject2\Car_Project_2.c:520: v=GetADC(2);
0418 758202    1454            mov     dpl,#0x02
041B C002      1455            push    ar2
041D C003      1456            push    ar3
041F C004      1457            push    ar4
0421 C005      1458            push    ar5
0423 120100    1459            lcall   _GetADC
0426 AE82      1460            mov     r6,dpl
0428 AF83      1461            mov     r7,dph
042A D005      1462            pop     ar5
042C D004      1463            pop     ar4
042E D003      1464            pop     ar3
0430 D002      1465            pop     ar2
0432           1466   ;        C:\Users\Travis\Documents\GitHub\eeceProject2\eeceProject2\Car_Project_2.c:521: val|=(v>min)?(0x01<<j):0x00; // min is threshold voltage but in our case it is 1023
0432 C3        1467            clr     c
0433 EA        1468            mov     a,r2
0434 9E        1469            subb    a,r6
0435 EB        1470            mov     a,r3
0436 6480      1471            xrl     a,#0x80
0438 8FF0      1472            mov     b,r7
043A 63F080    1473            xrl     b,#0x80
043D 95F0      1474            subb    a,b
043F 5001      1475            jnc     L034007?
0441 8DF0      1476            mov     b,r5
0443 05F0      1477            inc     b
0445 7401      1478            mov     a,#0x01
0447 8001      1479            sjmp    L034018?
0449           1480   L034016?:
0449 25E0      1481            add     a,acc
044B           1482   L034018?:
044B D5F0F0    1483            djnz    b,L034016?
044E FE        1484            mov     r6,a
044F 8001      1485            sjmp    L034008?
0451           1486   L034007?:
0451 7E00      1487            mov     r6,#0x00
0453           1488   L034008?:
0453 EE        1489            mov     a,r6
0454 4204      1490            orl     ar4,a
0456           1491   ;        C:\Users\Travis\Documents\GitHub\eeceProject2\eeceProject2\Car_Project_2.c:522: wait_bit_time();
0456 C002      1492            push    ar2
0458 C003      1493            push    ar3
045A C004      1494            push    ar4
045C C005      1495            push    ar5
045E 120100    1496            lcall   _wait_bit_time
0461 D005      1497            pop     ar5
0463 D004      1498            pop     ar4
0465 D003      1499            pop     ar3
0467 D002      1500            pop     ar2
0469           1501   ;        C:\Users\Travis\Documents\GitHub\eeceProject2\eeceProject2\Car_Project_2.c:518: for(j=0; j<8; j++)
0469 0D        1502            inc     r5
046A 8001      1503            sjmp    L034001?
046C           1504   L034004?:
046C           1505   ;        C:\Users\Travis\Documents\GitHub\eeceProject2\eeceProject2\Car_Project_2.c:525: wait_one_and_half_bit_time();
046C C004      1506            push    ar4
046E 120100    1507            lcall   _wait_one_and_half_bit_time
0471 D004      1508            pop     ar4
0473           1509   ;        C:\Users\Travis\Documents\GitHub\eeceProject2\eeceProject2\Car_Project_2.c:526: EA = 1;
0473 D2AF      1510            setb    _EA
0475           1511   ;        C:\Users\Travis\Documents\GitHub\eeceProject2\eeceProject2\Car_Project_2.c:527: return val;
0475 8C82      1512            mov     dpl,r4
0477 22        1513            ret
0478           1514   ;------------------------------------------------------------
0478           1515   ;Allocation info for local variables in function 'wait_bit_time'
0478           1516   ;------------------------------------------------------------
0478           1517   ;------------------------------------------------------------
0478           1518   ;        C:\Users\Travis\Documents\GitHub\eeceProject2\eeceProject2\Car_Project_2.c:532: void wait_bit_time(void){
0478           1519   ;        -----------------------------------------
0478           1520   ;         function wait_bit_time
0478           1521   ;        -----------------------------------------
0478           1522   _wait_bit_time:
0478           1523   ;        C:\Users\Travis\Documents\GitHub\eeceProject2\eeceProject2\Car_Project_2.c:543: _endasm;
0478           1524            
0478           1525     ;For a 22.1184MHz crystal one machine cycle
0478           1526     ;takes 12/22.1184MHz=0.5425347us
0478 7A02      1527                 mov R2, #2
047A           1528             L3:
047A 7996      1529            mov R1, #150
047C           1530             L2:
047C 7896      1531            mov R0, #150
047E           1532             L1:
047E D8F0      1533            djnz R0, L1
0480 D9B0      1534                 djnz R1, L2
0482 DA70      1535                 djnz R2, L3
0484 22        1536                 ret
0485           1537                
0485 22        1538            ret
0486           1539   ;------------------------------------------------------------
0486           1540   ;Allocation info for local variables in function 'wait_one_and_half_bit_time'
0486           1541   ;------------------------------------------------------------
0486           1542   ;------------------------------------------------------------
0486           1543   ;        C:\Users\Travis\Documents\GitHub\eeceProject2\eeceProject2\Car_Project_2.c:547: void wait_one_and_half_bit_time(void){
0486           1544   ;        -----------------------------------------
0486           1545   ;         function wait_one_and_half_bit_time
0486           1546   ;        -----------------------------------------
0486           1547   _wait_one_and_half_bit_time:
0486           1548   ;        C:\Users\Travis\Documents\GitHub\eeceProject2\eeceProject2\Car_Project_2.c:558: _endasm;
0486           1549            
0486           1550     ;For a 22.1184MHz crystal one machine cycle
0486           1551     ;takes 12/22.1184MHz=0.5425347us
0486 7A03      1552                 mov R2, #3
0488           1553             L6:
0488 7996      1554            mov R1, #150
048A           1555             L5:
048A 7896      1556            mov R0, #150
048C           1557             L4:
048C D8B0      1558            djnz R0, L4
048E D970      1559                 djnz R1, L5
0490 DA30      1560                 djnz R2, L6
0492 22        1561                 ret
0493           1562                
0493 22        1563            ret
0494           1564   ;------------------------------------------------------------
0494           1565   ;Allocation info for local variables in function 'SPIWrite'
0494           1566   ;------------------------------------------------------------
0494           1567   ;value                     Allocated to registers r2 
0494           1568   ;------------------------------------------------------------
0494           1569   ;        C:\Users\Travis\Documents\GitHub\eeceProject2\eeceProject2\Car_Project_2.c:562: void SPIWrite(unsigned char value){
0494           1570   ;        -----------------------------------------
0494           1571   ;         function SPIWrite
0494           1572   ;        -----------------------------------------
0494           1573   _SPIWrite:
0494 AA82      1574            mov     r2,dpl
0496           1575   ;        C:\Users\Travis\Documents\GitHub\eeceProject2\eeceProject2\Car_Project_2.c:563: SPSTA&=(~SPIF); // Clear the SPIF flag in SPSTA
0496 53C47F    1576            anl     _SPSTA,#0x7F
0499           1577   ;        C:\Users\Travis\Documents\GitHub\eeceProject2\eeceProject2\Car_Project_2.c:564: SPDAT=value;
0499 8AC5      1578            mov     _SPDAT,r2
049B           1579   ;        C:\Users\Travis\Documents\GitHub\eeceProject2\eeceProject2\Car_Project_2.c:565: while((SPSTA & SPIF)!=SPIF); //Wait for transmission to end
049B           1580   L037001?:
049B 7480      1581            mov     a,#0x80
049D 55C4      1582            anl     a,_SPSTA
049F FA        1583            mov     r2,a
04A0 BA80F0    1584            cjne    r2,#0x80,L037001?
04A3 22        1585            ret
04A4           1586   ;------------------------------------------------------------
04A4           1587   ;Allocation info for local variables in function 'GetADC'
04A4           1588   ;------------------------------------------------------------
04A4           1589   ;channel                   Allocated to registers r2 
04A4           1590   ;adc                       Allocated to registers r2 r3 
04A4           1591   ;------------------------------------------------------------
04A4           1592   ;        C:\Users\Travis\Documents\GitHub\eeceProject2\eeceProject2\Car_Project_2.c:569: unsigned int GetADC(unsigned char channel){
04A4           1593   ;        -----------------------------------------
04A4           1594   ;         function GetADC
04A4           1595   ;        -----------------------------------------
04A4           1596   _GetADC:
04A4 AA82      1597            mov     r2,dpl
04A6           1598   ;        C:\Users\Travis\Documents\GitHub\eeceProject2\eeceProject2\Car_Project_2.c:573: SPCON&=(~SPEN); // Disable SPI
04A6 53C3BF    1599            anl     _SPCON,#0xBF
04A9           1600   ;        C:\Users\Travis\Documents\GitHub\eeceProject2\eeceProject2\Car_Project_2.c:574: SPCON=MSTR|CPOL|CPHA|SPR1|SPR0|SSDIS;
04A9 75C33F    1601            mov     _SPCON,#0x3F
04AC           1602   ;        C:\Users\Travis\Documents\GitHub\eeceProject2\eeceProject2\Car_Project_2.c:575: SPCON|=SPEN; // Enable SPI
04AC 43C340    1603            orl     _SPCON,#0x40
04AF           1604   ;        C:\Users\Travis\Documents\GitHub\eeceProject2\eeceProject2\Car_Project_2.c:577: P4_1=0; // Activate the MCP3004 ADC.
04AF C2C1      1605            clr     _P4_1
04B1           1606   ;        C:\Users\Travis\Documents\GitHub\eeceProject2\eeceProject2\Car_Project_2.c:578: SPIWrite(channel|0x18);         // Send start bit, single/diff* bit, D2, D1, and D0 bits.
04B1 7418      1607            mov     a,#0x18
04B3 4A        1608            orl     a,r2
04B4 F582      1609            mov     dpl,a
04B6 120100    1610            lcall   _SPIWrite
04B9           1611   ;        C:\Users\Travis\Documents\GitHub\eeceProject2\eeceProject2\Car_Project_2.c:579: for(adc=0; adc<10; adc++); // Wait for S/H to setup
04B9 7A0A      1612            mov     r2,#0x0A
04BB 7B00      1613            mov     r3,#0x00
04BD           1614   L038003?:
04BD 1A        1615            dec     r2
04BE BAFF70    1616            cjne    r2,#0xff,L038009?
04C1 1B        1617            dec     r3
04C2           1618   L038009?:
04C2 EA        1619            mov     a,r2
04C3 4B        1620            orl     a,r3
04C4 7001      1621            jnz     L038003?
04C6           1622   ;        C:\Users\Travis\Documents\GitHub\eeceProject2\eeceProject2\Car_Project_2.c:580: SPIWrite(0x55); // Read bits 9 down to 4
04C6 758255    1623            mov     dpl,#0x55
04C9 120100    1624            lcall   _SPIWrite
04CC           1625   ;        C:\Users\Travis\Documents\GitHub\eeceProject2\eeceProject2\Car_Project_2.c:581: adc=((SPDAT&0x3f)*0x100);
04CC 743F      1626            mov     a,#0x3F
04CE 55C5      1627            anl     a,_SPDAT
04D0 FB        1628            mov     r3,a
04D1 7A00      1629            mov     r2,#0x00
04D3           1630   ;        C:\Users\Travis\Documents\GitHub\eeceProject2\eeceProject2\Car_Project_2.c:582: SPIWrite(0x55);// Read bits 3 down to 0
04D3 758255    1631            mov     dpl,#0x55
04D6 C002      1632            push    ar2
04D8 C003      1633            push    ar3
04DA 120100    1634            lcall   _SPIWrite
04DD D003      1635            pop     ar3
04DF D002      1636            pop     ar2
04E1           1637   ;        C:\Users\Travis\Documents\GitHub\eeceProject2\eeceProject2\Car_Project_2.c:583: P4_1=1; // Deactivate the MCP3004 ADC.
04E1 D2C1      1638            setb    _P4_1
04E3           1639   ;        C:\Users\Travis\Documents\GitHub\eeceProject2\eeceProject2\Car_Project_2.c:584: adc+=(SPDAT&0xf0); // SPDR contains the low part of the result. 
04E3 74F0      1640            mov     a,#0xF0
04E5 55C5      1641            anl     a,_SPDAT
04E7 FC        1642            mov     r4,a
04E8 7D00      1643            mov     r5,#0x00
04EA EC        1644            mov     a,r4
04EB 2A        1645            add     a,r2
04EC FA        1646            mov     r2,a
04ED ED        1647            mov     a,r5
04EE 3B        1648            addc    a,r3
04EF           1649   ;        C:\Users\Travis\Documents\GitHub\eeceProject2\eeceProject2\Car_Project_2.c:585: adc>>=4;
04EF C4        1650            swap    a
04F0 CA        1651            xch     a,r2
04F1 C4        1652            swap    a
04F2 540F      1653            anl     a,#0x0f
04F4 6A        1654            xrl     a,r2
04F5 CA        1655            xch     a,r2
04F6 540F      1656            anl     a,#0x0f
04F8 CA        1657            xch     a,r2
04F9 6A        1658            xrl     a,r2
04FA CA        1659            xch     a,r2
04FB           1660   ;        C:\Users\Travis\Documents\GitHub\eeceProject2\eeceProject2\Car_Project_2.c:587: return adc;
04FB 8A82      1661            mov     dpl,r2
04FD F583      1662            mov     dph,a
04FF 22        1663            ret
0500           1664   ;------------------------------------------------------------
0500           1665   ;Allocation info for local variables in function 'Testing_Code'
0500           1666   ;------------------------------------------------------------
0500           1667   ;------------------------------------------------------------
0500           1668   ;        C:\Users\Travis\Documents\GitHub\eeceProject2\eeceProject2\Car_Project_2.c:608: void Testing_Code(void){
0500           1669   ;        -----------------------------------------
0500           1670   ;         function Testing_Code
0500           1671   ;        -----------------------------------------
0500           1672   _Testing_Code:
0500           1673   ;        C:\Users\Travis\Documents\GitHub\eeceProject2\eeceProject2\Car_Project_2.c:609: wait1s();
0500 120100    1674            lcall   _wait1s
0503           1675   ;        C:\Users\Travis\Documents\GitHub\eeceProject2\eeceProject2\Car_Project_2.c:610: wait1s();
0503 120100    1676            lcall   _wait1s
0506           1677   ;        C:\Users\Travis\Documents\GitHub\eeceProject2\eeceProject2\Car_Project_2.c:613: while(1){
0506           1678   L039002?:
0506           1679   ;        C:\Users\Travis\Documents\GitHub\eeceProject2\eeceProject2\Car_Project_2.c:614: Parallel_Park();
0506 120100    1680            lcall   _Parallel_Park
0509           1681   ;        C:\Users\Travis\Documents\GitHub\eeceProject2\eeceProject2\Car_Project_2.c:615: wait1s();
0509 120100    1682            lcall   _wait1s
050C           1683   ;        C:\Users\Travis\Documents\GitHub\eeceProject2\eeceProject2\Car_Project_2.c:616: wait1s();
050C 120100    1684            lcall   _wait1s
050F 8001      1685            sjmp    L039002?
0511           1686   ;------------------------------------------------------------
0511           1687   ;Allocation info for local variables in function 'run'
0511           1688   ;------------------------------------------------------------
0511           1689   ;right_distance            Allocated to registers r2 r3 
0511           1690   ;left_distance             Allocated to registers r4 r5 
0511           1691   ;------------------------------------------------------------
0511           1692   ;        C:\Users\Travis\Documents\GitHub\eeceProject2\eeceProject2\Car_Project_2.c:620: void run(void){
0511           1693   ;        -----------------------------------------
0511           1694   ;         function run
0511           1695   ;        -----------------------------------------
0511           1696   _run:
0511           1697   ;        C:\Users\Travis\Documents\GitHub\eeceProject2\eeceProject2\Car_Project_2.c:621: unsigned int right_distance = Get_Right_Distance();
0511 120100    1698            lcall   _Get_Right_Distance
0514 AA82      1699            mov     r2,dpl
0516 AB83      1700            mov     r3,dph
0518           1701   ;        C:\Users\Travis\Documents\GitHub\eeceProject2\eeceProject2\Car_Project_2.c:622: unsigned int left_distance = Get_Left_Distance();
0518 C002      1702            push    ar2
051A C003      1703            push    ar3
051C 120100    1704            lcall   _Get_Left_Distance
051F AC82      1705            mov     r4,dpl
0521 AD83      1706            mov     r5,dph
0523 D003      1707            pop     ar3
0525 D002      1708            pop     ar2
0527           1709   ;        C:\Users\Travis\Documents\GitHub\eeceProject2\eeceProject2\Car_Project_2.c:624: if(!reverse) {
0527 E5C0      1710            mov     a,_reverse
0529 6001      1711            jz      L040047?
052B 020100    1712            ljmp    L040030?
052E           1713   L040047?:
052E           1714   ;        C:\Users\Travis\Documents\GitHub\eeceProject2\eeceProject2\Car_Project_2.c:625: if (abs(right_distance - dist_table[dist_index]) >= ERROR_BOUND){
052E E500      1715            mov     a,_dist_index
0530 2500      1716            add     a,_dist_index
0532 FE        1717            mov     r6,a
0533 E501      1718            mov     a,(_dist_index + 1)
0535 33        1719            rlc     a
0536 EE        1720            mov     a,r6
0537 2440      1721            add     a,#_dist_table
0539 F8        1722            mov     r0,a
053A 8606      1723            mov     ar6,@r0
053C 08        1724            inc     r0
053D 8607      1725            mov     ar7,@r0
053F EA        1726            mov     a,r2
0540 C3        1727            clr     c
0541 9E        1728            subb    a,r6
0542 F582      1729            mov     dpl,a
0544 EB        1730            mov     a,r3
0545 9F        1731            subb    a,r7
0546 F583      1732            mov     dph,a
0548 C002      1733            push    ar2
054A C003      1734            push    ar3
054C C004      1735            push    ar4
054E C005      1736            push    ar5
0550 120100    1737            lcall   _abs
0553 AE82      1738            mov     r6,dpl
0555 AF83      1739            mov     r7,dph
0557 D005      1740            pop     ar5
0559 D004      1741            pop     ar4
055B D003      1742            pop     ar3
055D D002      1743            pop     ar2
055F C3        1744            clr     c
0560 EE        1745            mov     a,r6
0561 9414      1746            subb    a,#0x14
0563 EF        1747            mov     a,r7
0564 6480      1748            xrl     a,#0x80
0566 9480      1749            subb    a,#0x80
0568 4001      1750            jc      L040006?
056A           1751   ;        C:\Users\Travis\Documents\GitHub\eeceProject2\eeceProject2\Car_Project_2.c:626: if (right_distance > dist_table[dist_index]){
056A E500      1752            mov     a,_dist_index
056C 2500      1753            add     a,_dist_index
056E FE        1754            mov     r6,a
056F E501      1755            mov     a,(_dist_index + 1)
0571 33        1756            rlc     a
0572 EE        1757            mov     a,r6
0573 2440      1758            add     a,#_dist_table
0575 F8        1759            mov     r0,a
0576 8606      1760            mov     ar6,@r0
0578 08        1761            inc     r0
0579 8607      1762            mov     ar7,@r0
057B C3        1763            clr     c
057C EE        1764            mov     a,r6
057D 9A        1765            subb    a,r2
057E EF        1766            mov     a,r7
057F 9B        1767            subb    a,r3
0580 5001      1768            jnc     L040002?
0582           1769   ;        C:\Users\Travis\Documents\GitHub\eeceProject2\eeceProject2\Car_Project_2.c:627: Move_Right_Motor_Forwards();
0582 C002      1770            push    ar2
0584 C003      1771            push    ar3
0586 C004      1772            push    ar4
0588 C005      1773            push    ar5
058A 120100    1774            lcall   _Move_Right_Motor_Forwards
058D D005      1775            pop     ar5
058F D004      1776            pop     ar4
0591 D003      1777            pop     ar3
0593 D002      1778            pop     ar2
0595           1779   L040002?:
0595           1780   ;        C:\Users\Travis\Documents\GitHub\eeceProject2\eeceProject2\Car_Project_2.c:629: if (right_distance < dist_table[dist_index]){
0595 E500      1781            mov     a,_dist_index
0597 2500      1782            add     a,_dist_index
0599 FE        1783            mov     r6,a
059A E501      1784            mov     a,(_dist_index + 1)
059C 33        1785            rlc     a
059D EE        1786            mov     a,r6
059E 2440      1787            add     a,#_dist_table
05A0 F8        1788            mov     r0,a
05A1 8606      1789            mov     ar6,@r0
05A3 08        1790            inc     r0
05A4 8607      1791            mov     ar7,@r0
05A6 C3        1792            clr     c
05A7 EA        1793            mov     a,r2
05A8 9E        1794            subb    a,r6
05A9 EB        1795            mov     a,r3
05AA 9F        1796            subb    a,r7
05AB 5001      1797            jnc     L040007?
05AD           1798   ;        C:\Users\Travis\Documents\GitHub\eeceProject2\eeceProject2\Car_Project_2.c:630: Move_Right_Motor_Backwards();
05AD C004      1799            push    ar4
05AF C005      1800            push    ar5
05B1 120100    1801            lcall   _Move_Right_Motor_Backwards
05B4 D005      1802            pop     ar5
05B6 D004      1803            pop     ar4
05B8 8001      1804            sjmp    L040007?
05BA           1805   L040006?:
05BA           1806   ;        C:\Users\Travis\Documents\GitHub\eeceProject2\eeceProject2\Car_Project_2.c:634: Stop_Car();
05BA C004      1807            push    ar4
05BC C005      1808            push    ar5
05BE 120100    1809            lcall   _Stop_Car
05C1 D005      1810            pop     ar5
05C3 D004      1811            pop     ar4
05C5           1812   L040007?:
05C5           1813   ;        C:\Users\Travis\Documents\GitHub\eeceProject2\eeceProject2\Car_Project_2.c:636: if (abs(left_distance - dist_table[dist_index]) >= ERROR_BOUND){
05C5 E500      1814            mov     a,_dist_index
05C7 2500      1815            add     a,_dist_index
05C9 FE        1816            mov     r6,a
05CA E501      1817            mov     a,(_dist_index + 1)
05CC 33        1818            rlc     a
05CD EE        1819            mov     a,r6
05CE 2440      1820            add     a,#_dist_table
05D0 F8        1821            mov     r0,a
05D1 8606      1822            mov     ar6,@r0
05D3 08        1823            inc     r0
05D4 8607      1824            mov     ar7,@r0
05D6 EC        1825            mov     a,r4
05D7 C3        1826            clr     c
05D8 9E        1827            subb    a,r6
05D9 F582      1828            mov     dpl,a
05DB ED        1829            mov     a,r5
05DC 9F        1830            subb    a,r7
05DD F583      1831            mov     dph,a
05DF C004      1832            push    ar4
05E1 C005      1833            push    ar5
05E3 120100    1834            lcall   _abs
05E6 AE82      1835            mov     r6,dpl
05E8 AF83      1836            mov     r7,dph
05EA D005      1837            pop     ar5
05EC D004      1838            pop     ar4
05EE C3        1839            clr     c
05EF EE        1840            mov     a,r6
05F0 9414      1841            subb    a,#0x14
05F2 EF        1842            mov     a,r7
05F3 6480      1843            xrl     a,#0x80
05F5 9480      1844            subb    a,#0x80
05F7 4001      1845            jc      L040013?
05F9           1846   ;        C:\Users\Travis\Documents\GitHub\eeceProject2\eeceProject2\Car_Project_2.c:637: if (left_distance > dist_table[dist_index]){
05F9 E500      1847            mov     a,_dist_index
05FB 2500      1848            add     a,_dist_index
05FD FE        1849            mov     r6,a
05FE E501      1850            mov     a,(_dist_index + 1)
0600 33        1851            rlc     a
0601 EE        1852            mov     a,r6
0602 2440      1853            add     a,#_dist_table
0604 F8        1854            mov     r0,a
0605 8606      1855            mov     ar6,@r0
0607 08        1856            inc     r0
0608 8607      1857            mov     ar7,@r0
060A C3        1858            clr     c
060B EE        1859            mov     a,r6
060C 9C        1860            subb    a,r4
060D EF        1861            mov     a,r7
060E 9D        1862            subb    a,r5
060F 5001      1863            jnc     L040009?
0611           1864   ;        C:\Users\Travis\Documents\GitHub\eeceProject2\eeceProject2\Car_Project_2.c:638: Move_Left_Motor_Forwards();
0611 C004      1865            push    ar4
0613 C005      1866            push    ar5
0615 120100    1867            lcall   _Move_Left_Motor_Forwards
0618 D005      1868            pop     ar5
061A D004      1869            pop     ar4
061C           1870   L040009?:
061C           1871   ;        C:\Users\Travis\Documents\GitHub\eeceProject2\eeceProject2\Car_Project_2.c:640: if (left_distance < dist_table[dist_index]){
061C E500      1872            mov     a,_dist_index
061E 2500      1873            add     a,_dist_index
0620 FE        1874            mov     r6,a
0621 E501      1875            mov     a,(_dist_index + 1)
0623 33        1876            rlc     a
0624 EE        1877            mov     a,r6
0625 2440      1878            add     a,#_dist_table
0627 F8        1879            mov     r0,a
0628 8606      1880            mov     ar6,@r0
062A 08        1881            inc     r0
062B 8607      1882            mov     ar7,@r0
062D C3        1883            clr     c
062E EC        1884            mov     a,r4
062F 9E        1885            subb    a,r6
0630 ED        1886            mov     a,r5
0631 9F        1887            subb    a,r7
0632 4001      1888            jc      L040053?
0634 22        1889            ret
0635           1890   L040053?:
0635           1891   ;        C:\Users\Travis\Documents\GitHub\eeceProject2\eeceProject2\Car_Project_2.c:641: Move_Left_Motor_Backwards();
0635 020100    1892            ljmp    _Move_Left_Motor_Backwards
0638           1893   L040013?:
0638           1894   ;        C:\Users\Travis\Documents\GitHub\eeceProject2\eeceProject2\Car_Project_2.c:645: Stop_Car();
0638 020100    1895            ljmp    _Stop_Car
063B           1896   L040030?:
063B           1897   ;        C:\Users\Travis\Documents\GitHub\eeceProject2\eeceProject2\Car_Project_2.c:648: if (abs(right_distance - dist_table[dist_index]) >= ERROR_BOUND){
063B E500      1898            mov     a,_dist_index
063D 2500      1899            add     a,_dist_index
063F FE        1900            mov     r6,a
0640 E501      1901            mov     a,(_dist_index + 1)
0642 33        1902            rlc     a
0643 EE        1903            mov     a,r6
0644 2440      1904            add     a,#_dist_table
0646 F8        1905            mov     r0,a
0647 8606      1906            mov     ar6,@r0
0649 08        1907            inc     r0
064A 8607      1908            mov     ar7,@r0
064C EA        1909            mov     a,r2
064D C3        1910            clr     c
064E 9E        1911            subb    a,r6
064F F582      1912            mov     dpl,a
0651 EB        1913            mov     a,r3
0652 9F        1914            subb    a,r7
0653 F583      1915            mov     dph,a
0655 C002      1916            push    ar2
0657 C003      1917            push    ar3
0659 C004      1918            push    ar4
065B C005      1919            push    ar5
065D 120100    1920            lcall   _abs
0660 AE82      1921            mov     r6,dpl
0662 AF83      1922            mov     r7,dph
0664 D005      1923            pop     ar5
0666 D004      1924            pop     ar4
0668 D003      1925            pop     ar3
066A D002      1926            pop     ar2
066C C3        1927            clr     c
066D EE        1928            mov     a,r6
066E 9414      1929            subb    a,#0x14
0670 EF        1930            mov     a,r7
0671 6480      1931            xrl     a,#0x80
0673 9480      1932            subb    a,#0x80
0675 4001      1933            jc      L040020?
0677           1934   ;        C:\Users\Travis\Documents\GitHub\eeceProject2\eeceProject2\Car_Project_2.c:649: if (right_distance < dist_table[dist_index]){
0677 E500      1935            mov     a,_dist_index
0679 2500      1936            add     a,_dist_index
067B FE        1937            mov     r6,a
067C E501      1938            mov     a,(_dist_index + 1)
067E 33        1939            rlc     a
067F EE        1940            mov     a,r6
0680 2440      1941            add     a,#_dist_table
0682 F8        1942            mov     r0,a
0683 8606      1943            mov     ar6,@r0
0685 08        1944            inc     r0
0686 8607      1945            mov     ar7,@r0
0688 C3        1946            clr     c
0689 EA        1947            mov     a,r2
068A 9E        1948            subb    a,r6
068B EB        1949            mov     a,r3
068C 9F        1950            subb    a,r7
068D 5001      1951            jnc     L040016?
068F           1952   ;        C:\Users\Travis\Documents\GitHub\eeceProject2\eeceProject2\Car_Project_2.c:650: Move_Right_Motor_Forwards();
068F C002      1953            push    ar2
0691 C003      1954            push    ar3
0693 C004      1955            push    ar4
0695 C005      1956            push    ar5
0697 120100    1957            lcall   _Move_Right_Motor_Forwards
069A D005      1958            pop     ar5
069C D004      1959            pop     ar4
069E D003      1960            pop     ar3
06A0 D002      1961            pop     ar2
06A2           1962   L040016?:
06A2           1963   ;        C:\Users\Travis\Documents\GitHub\eeceProject2\eeceProject2\Car_Project_2.c:652: if (right_distance > dist_table[dist_index]){
06A2 E500      1964            mov     a,_dist_index
06A4 2500      1965            add     a,_dist_index
06A6 FE        1966            mov     r6,a
06A7 E501      1967            mov     a,(_dist_index + 1)
06A9 33        1968            rlc     a
06AA EE        1969            mov     a,r6
06AB 2440      1970            add     a,#_dist_table
06AD F8        1971            mov     r0,a
06AE 8606      1972            mov     ar6,@r0
06B0 08        1973            inc     r0
06B1 8607      1974            mov     ar7,@r0
06B3 C3        1975            clr     c
06B4 EE        1976            mov     a,r6
06B5 9A        1977            subb    a,r2
06B6 EF        1978            mov     a,r7
06B7 9B        1979            subb    a,r3
06B8 5001      1980            jnc     L040021?
06BA           1981   ;        C:\Users\Travis\Documents\GitHub\eeceProject2\eeceProject2\Car_Project_2.c:653: Move_Right_Motor_Backwards();
06BA C004      1982            push    ar4
06BC C005      1983            push    ar5
06BE 120100    1984            lcall   _Move_Right_Motor_Backwards
06C1 D005      1985            pop     ar5
06C3 D004      1986            pop     ar4
06C5 8001      1987            sjmp    L040021?
06C7           1988   L040020?:
06C7           1989   ;        C:\Users\Travis\Documents\GitHub\eeceProject2\eeceProject2\Car_Project_2.c:657: Stop_Car();
06C7 C004      1990            push    ar4
06C9 C005      1991            push    ar5
06CB 120100    1992            lcall   _Stop_Car
06CE D005      1993            pop     ar5
06D0 D004      1994            pop     ar4
06D2           1995   L040021?:
06D2           1996   ;        C:\Users\Travis\Documents\GitHub\eeceProject2\eeceProject2\Car_Project_2.c:659: if (abs(left_distance - dist_table[dist_index]) >= ERROR_BOUND){
06D2 E500      1997            mov     a,_dist_index
06D4 2500      1998            add     a,_dist_index
06D6 FA        1999            mov     r2,a
06D7 E501      2000            mov     a,(_dist_index + 1)
06D9 33        2001            rlc     a
06DA EA        2002            mov     a,r2
06DB 2440      2003            add     a,#_dist_table
06DD F8        2004            mov     r0,a
06DE 8602      2005            mov     ar2,@r0
06E0 08        2006            inc     r0
06E1 8603      2007            mov     ar3,@r0
06E3 EC        2008            mov     a,r4
06E4 C3        2009            clr     c
06E5 9A        2010            subb    a,r2
06E6 F582      2011            mov     dpl,a
06E8 ED        2012            mov     a,r5
06E9 9B        2013            subb    a,r3
06EA F583      2014            mov     dph,a
06EC C004      2015            push    ar4
06EE C005      2016            push    ar5
06F0 120100    2017            lcall   _abs
06F3 AA82      2018            mov     r2,dpl
06F5 AB83      2019            mov     r3,dph
06F7 D005      2020            pop     ar5
06F9 D004      2021            pop     ar4
06FB C3        2022            clr     c
06FC EA        2023            mov     a,r2
06FD 9414      2024            subb    a,#0x14
06FF EB        2025            mov     a,r3
0700 6480      2026            xrl     a,#0x80
0702 9480      2027            subb    a,#0x80
0704 4001      2028            jc      L040027?
0706           2029   ;        C:\Users\Travis\Documents\GitHub\eeceProject2\eeceProject2\Car_Project_2.c:660: if (left_distance < dist_table[dist_index]){
0706 E500      2030            mov     a,_dist_index
0708 2500      2031            add     a,_dist_index
070A FA        2032            mov     r2,a
070B E501      2033            mov     a,(_dist_index + 1)
070D 33        2034            rlc     a
070E EA        2035            mov     a,r2
070F 2440      2036            add     a,#_dist_table
0711 F8        2037            mov     r0,a
0712 8602      2038            mov     ar2,@r0
0714 08        2039            inc     r0
0715 8603      2040            mov     ar3,@r0
0717 C3        2041            clr     c
0718 EC        2042            mov     a,r4
0719 9A        2043            subb    a,r2
071A ED        2044            mov     a,r5
071B 9B        2045            subb    a,r3
071C 5001      2046            jnc     L040023?
071E           2047   ;        C:\Users\Travis\Documents\GitHub\eeceProject2\eeceProject2\Car_Project_2.c:661: Move_Left_Motor_Forwards();
071E C004      2048            push    ar4
0720 C005      2049            push    ar5
0722 120100    2050            lcall   _Move_Left_Motor_Forwards
0725 D005      2051            pop     ar5
0727 D004      2052            pop     ar4
0729           2053   L040023?:
0729           2054   ;        C:\Users\Travis\Documents\GitHub\eeceProject2\eeceProject2\Car_Project_2.c:663: if (left_distance > dist_table[dist_index]){
0729 E500      2055            mov     a,_dist_index
072B 2500      2056            add     a,_dist_index
072D FA        2057            mov     r2,a
072E E501      2058            mov     a,(_dist_index + 1)
0730 33        2059            rlc     a
0731 EA        2060            mov     a,r2
0732 2440      2061            add     a,#_dist_table
0734 F8        2062            mov     r0,a
0735 8602      2063            mov     ar2,@r0
0737 08        2064            inc     r0
0738 8603      2065            mov     ar3,@r0
073A C3        2066            clr     c
073B EA        2067            mov     a,r2
073C 9C        2068            subb    a,r4
073D EB        2069            mov     a,r3
073E 9D        2070            subb    a,r5
073F 5001      2071            jnc     L040032?
0741           2072   ;        C:\Users\Travis\Documents\GitHub\eeceProject2\eeceProject2\Car_Project_2.c:664: Move_Left_Motor_Backwards();
0741 020100    2073            ljmp    _Move_Left_Motor_Backwards
0744           2074   L040027?:
0744           2075   ;        C:\Users\Travis\Documents\GitHub\eeceProject2\eeceProject2\Car_Project_2.c:668: Stop_Car();
0744 020100    2076            ljmp    _Stop_Car
0747           2077   L040032?:
0747 22        2078            ret
0748           2079   ;------------------------------------------------------------
0748           2080   ;Allocation info for local variables in function 'Fake_run'
0748           2081   ;------------------------------------------------------------
0748           2082   ;------------------------------------------------------------
0748           2083   ;        C:\Users\Travis\Documents\GitHub\eeceProject2\eeceProject2\Car_Project_2.c:672: void Fake_run(void) {
0748           2084   ;        -----------------------------------------
0748           2085   ;         function Fake_run
0748           2086   ;        -----------------------------------------
0748           2087   _Fake_run:
0748           2088   ;        C:\Users\Travis\Documents\GitHub\eeceProject2\eeceProject2\Car_Project_2.c:673: Rotate_Car_180_CW();
0748 120100    2089            lcall   _Rotate_Car_180_CW
074B           2090   ;        C:\Users\Travis\Documents\GitHub\eeceProject2\eeceProject2\Car_Project_2.c:674: wait1s();
074B 120100    2091            lcall   _wait1s
074E           2092   ;        C:\Users\Travis\Documents\GitHub\eeceProject2\eeceProject2\Car_Project_2.c:675: wait1s();
074E 120100    2093            lcall   _wait1s
0751           2094   ;        C:\Users\Travis\Documents\GitHub\eeceProject2\eeceProject2\Car_Project_2.c:676: wait1s();
0751 120100    2095            lcall   _wait1s
0754           2096   ;        C:\Users\Travis\Documents\GitHub\eeceProject2\eeceProject2\Car_Project_2.c:677: Rotate_Car_180_CCW();
0754 120100    2097            lcall   _Rotate_Car_180_CCW
0757           2098   ;        C:\Users\Travis\Documents\GitHub\eeceProject2\eeceProject2\Car_Project_2.c:678: wait1s();
0757 120100    2099            lcall   _wait1s
075A           2100   ;        C:\Users\Travis\Documents\GitHub\eeceProject2\eeceProject2\Car_Project_2.c:679: wait1s();
075A 120100    2101            lcall   _wait1s
075D           2102   ;        C:\Users\Travis\Documents\GitHub\eeceProject2\eeceProject2\Car_Project_2.c:680: wait1s();
075D 020100    2103            ljmp    _wait1s
0760           2104   ;------------------------------------------------------------
0760           2105   ;Allocation info for local variables in function 'main'
0760           2106   ;------------------------------------------------------------
0760           2107   ;logic_0_thresh            Allocated to registers 
0760           2108   ;cmd                       Allocated to registers r2 
0760           2109   ;------------------------------------------------------------
0760           2110   ;        C:\Users\Travis\Documents\GitHub\eeceProject2\eeceProject2\Car_Project_2.c:683: void main (void)
0760           2111   ;        -----------------------------------------
0760           2112   ;         function main
0760           2113   ;        -----------------------------------------
0760           2114   _main:
0760           2115   ;        C:\Users\Travis\Documents\GitHub\eeceProject2\eeceProject2\Car_Project_2.c:687: dist_index = 1;
0760 750001    2116            mov     _dist_index,#0x01
0763 E4        2117            clr     a
0764 F501      2118            mov     (_dist_index + 1),a
0766           2119   ;        C:\Users\Travis\Documents\GitHub\eeceProject2\eeceProject2\Car_Project_2.c:688: reverse = 0;    
0766 75C000    2120            mov     _reverse,#0x00
0769           2121   ;        C:\Users\Travis\Documents\GitHub\eeceProject2\eeceProject2\Car_Project_2.c:690: printf("\n");
0769 74B0      2122            mov     a,#__str_5
076B C0E0      2123            push    acc
076D 74A3      2124            mov     a,#(__str_5 >> 8)
076F C0E0      2125            push    acc
0771 7480      2126            mov     a,#0x80
0773 C0E0      2127            push    acc
0775 120100    2128            lcall   _printf
0778 1581      2129            dec     sp
077A 1581      2130            dec     sp
077C 1581      2131            dec     sp
077E           2132   ;        C:\Users\Travis\Documents\GitHub\eeceProject2\eeceProject2\Car_Project_2.c:692: while(1){
077E           2133   L042012?:
077E           2134   ;        C:\Users\Travis\Documents\GitHub\eeceProject2\eeceProject2\Car_Project_2.c:694: run();
077E 120100    2135            lcall   _run
0781           2136   ;        C:\Users\Travis\Documents\GitHub\eeceProject2\eeceProject2\Car_Project_2.c:697: if(Get_Right_Distance() < logic_0_thresh){
0781 120100    2137            lcall   _Get_Right_Distance
0784 AA82      2138            mov     r2,dpl
0786 AB83      2139            mov     r3,dph
0788 C3        2140            clr     c
0789 EA        2141            mov     a,r2
078A 940A      2142            subb    a,#0x0A
078C EB        2143            mov     a,r3
078D 9400      2144            subb    a,#0x00
078F 5001      2145            jnc     L042012?
0791           2146   ;        C:\Users\Travis\Documents\GitHub\eeceProject2\eeceProject2\Car_Project_2.c:698: Stop_Car();
0791 120100    2147            lcall   _Stop_Car
0794           2148   ;        C:\Users\Travis\Documents\GitHub\eeceProject2\eeceProject2\Car_Project_2.c:699: cmd = rx_byte (logic_0_thresh);         
0794 90000A    2149            mov     dptr,#0x000A
0797 120100    2150            lcall   _rx_byte
079A AA82      2151            mov     r2,dpl
079C           2152   ;        C:\Users\Travis\Documents\GitHub\eeceProject2\eeceProject2\Car_Project_2.c:700: if(cmd == MOVE_FURTHER) Move_Car_Further();
079C BAFD30    2153            cjne    r2,#0xFD,L042002?
079F C002      2154            push    ar2
07A1 120100    2155            lcall   _Move_Car_Further
07A4 D002      2156            pop     ar2
07A6           2157   L042002?:
07A6           2158   ;        C:\Users\Travis\Documents\GitHub\eeceProject2\eeceProject2\Car_Project_2.c:701: if(cmd == MOVE_CLOSER) Move_Car_Closer();
07A6 BAF570    2159            cjne    r2,#0xF5,L042004?
07A9 C002      2160            push    ar2
07AB 120100    2161            lcall   _Move_Car_Closer
07AE D002      2162            pop     ar2
07B0           2163   L042004?:
07B0           2164   ;        C:\Users\Travis\Documents\GitHub\eeceProject2\eeceProject2\Car_Project_2.c:702: if(cmd == ROTATE_180) Rotate_Car_180_CW();
07B0 BAD5B0    2165            cjne    r2,#0xD5,L042006?
07B3 C002      2166            push    ar2
07B5 120100    2167            lcall   _Rotate_Car_180_CW
07B8 D002      2168            pop     ar2
07BA           2169   L042006?:
07BA           2170   ;        C:\Users\Travis\Documents\GitHub\eeceProject2\eeceProject2\Car_Project_2.c:703: if(cmd == PRL_PARK) Parallel_Park();
07BA BA84F0    2171            cjne    r2,#0x84,L042012?
07BD 120100    2172            lcall   _Parallel_Park
07C0 8001      2173            sjmp    L042012?
07C2           2174            rseg R_CSEG
07C2           2175   
0000           2176            rseg R_XINIT
0000           2177   
0000           2178            rseg R_CONST
0000           2179   __str_0:
0000 20        2180            db ' '
0001 0A        2181            db 0x0A
0002 20426566  2182            db ' Before Turning!!!!!!!!! Right Voltage Reading: %u, Left V'
     6F726520
     5475726E
     696E6721
     21212121
     21212121
     20526967
     68742056
     6F6C7461
     67652052
     65616469
     6E673A20
     25752C20
     4C656674
     2056
003C 6F6C7461  2183            db 'oltage Reading: %u'
     67652052
     65616469
     6E673A20
     2575
004E 00        2184            db 0x00
004F           2185   __str_1:
004F 20        2186            db ' '
0050 0A        2187            db 0x0A
0051 20466972  2188            db ' First Loop Right Voltage Reading: %u, Left Voltage Readin'
     7374204C
     6F6F7020
     52696768
     7420566F
     6C746167
     65205265
     6164696E
     673A2025
     752C204C
     65667420
     566F6C74
     61676520
     52656164
     696E
008B 673A2025  2189            db 'g: %u'
     75
0090 00        2190            db 0x00
0091           2191   __str_2:
0091 0D        2192            db 0x0D
0092 00        2193            db 0x00
0093           2194   __str_3:
0093 20        2195            db ' '
0094 0A        2196            db 0x0A
0095 20536563  2197            db ' Second Loop Right Voltage Reading: %u, Left Voltage Readi'
     6F6E6420
     4C6F6F70
     20526967
     68742056
     6F6C7461
     67652052
     65616469
     6E673A20
     25752C20
     4C656674
     20566F6C
     74616765
     20526561
     6469
00CF 6E673A20  2198            db 'ng: %u'
     2575
00D5 00        2199            db 0x00
00D6           2200   __str_4:
00D6 6D616465  2201            db 'made through both loops'
     20746872
     6F756768
     20626F74
     68206C6F
     6F7073
00ED 00        2202            db 0x00
00EE           2203   __str_5:
00EE 0A        2204            db 0x0A
00EF 00        2205            db 0x00
00F0           2206   
000E           2207            CSEG
000E           2208   
000E           2209   end
